(dp1
S'k_long_GRB.308.10_coadd.fits'
p2
(dp3
S'calib_stars'
p4
(dp5
S'259.068309'
p6
(dp7
S'delta_pos'
p8
F0.16873954351907305
sS'2mass_e_mag'
p9
F0.021000000000000001
sS'new_e_mag'
p10
F0.032476324200255341
sS'delta_mag'
p11
cnumpy.core.multiarray
scalar
p12
(cnumpy
dtype
p13
(S'f8'
I0
I1
tRp14
(I3
S'<'
NNNI-1
I-1
I0
tbS'\x00\x00\x00\x00\x00\x00\xe0<'
tRp15
sS'ra'
p16
F259.068309
sS'inst_e_mag'
p17
F0.00089999999999999998
sS'new_mag'
p18
g12
(g14
S"n\x12\x83\xc0\xca\xa1'@"
tRp19
sS'dec'
p20
F55.342776999999998
sS'inst_mag'
p21
F-9.6994000000000007
sS'2mass_mag'
p22
F11.816000000000001
ssS'258.972339'
p23
(dp24
g8
F0.066420736388936641
sg9
F0.032000000000000001
sg10
F0.032603773302488939
sg11
g12
(g14
S'\x00\x08\xce\x19Q\xda{?'
tRp25
sg16
F258.97233899999998
sg17
F0.0015
sg18
g12
(g14
S'%u\x02\x9a\x08\xdb)@'
tRp26
sg20
F55.418858
sg21
F-8.5876000000000001
sg22
F12.920999999999999
ssS'258.957874'
p27
(dp28
g8
F0.33163399557155232
sg9
F0.040000000000000001
sg10
F0.032999752022706032
sg11
g12
(g14
S'\x00\xdd\xb5\x84|\xd0\xa3?'
tRp29
sg16
F258.957874
sg17
F0.0025999999999999999
sg18
g12
(g14
S'P\x1e\x16jM\x13+@'
tRp30
sg20
F55.443741000000003
sg21
F-7.9776999999999996
sg22
F13.499000000000001
ssS'259.083669'
p31
(dp32
g8
F0.069070235214480191
sg9
F0.062
sg10
F0.033536482128572916
sg11
g12
(g14
S'\x00\x1e\xa7\xe8H.\xbf?'
tRp33
sg16
F259.08366899999999
sg17
F0.0035999999999999999
sg18
g12
(g14
S'vO\x1e\x16j\xcd+@'
tRp34
sg20
F55.393124
sg21
F-7.6142000000000003
sg22
F14.023
ssS'259.049341'
p35
(dp36
g8
F0.051888088960883177
sg9
F0.051999999999999998
sg10
F0.033302078517114975
sg11
g12
(g14
S'\x00\xb1Pk\x9aw\xac?'
tRp37
sg16
F259.04934100000003
sg17
F0.0032000000000000002
sg18
g12
(g14
S'\x8a\x8e\xe4\xf2\x1f\x92+@'
tRp38
sg20
F55.379928999999997
sg21
F-7.7300000000000004
sg22
F13.840999999999999
ssS'259.013697'
p39
(dp40
g8
F0.21307727259506559
sg9
F0.043999999999999997
sg10
F0.032955212540053368
sg11
g12
(g14
S'\x00\xe0-\x90\xa0\xf8\xc1?'
tRp41
sg16
F259.01369699999998
sg17
F0.0025000000000000001
sg18
g12
(g14
S'\xb3{\xf2\xb0P\xeb*@'
tRp42
sg20
F55.350757999999999
sg21
F-8.0557999999999996
sg22
F13.6
ssS'258.866758'
p43
(dp44
g8
F0.25462570551987779
sg9
F0.050000000000000003
sg10
F0.034233428597791528
sg11
g12
(g14
S'\x00\xd0\xb3Y\xf5\xb9\xaa?'
tRp45
sg16
F258.866758
sg17
F0.0045999999999999999
sg18
g12
(g14
S'\xe4\x14\x1d\xc9\xe5\x7f+@'
tRp46
sg20
F55.347667999999999
sg21
F-7.7656000000000001
sg22
F13.802
ssS'258.886652'
p47
(dp48
g8
F0.16580275417470819
sg9
F0.049000000000000002
sg10
F0.032660257708108958
sg11
g12
(g14
S'\x00\xd3Mb\x10X\xb9?'
tRp49
sg16
F258.88665200000003
sg17
F0.0016999999999999999
sg18
g12
(g14
S'=\n\xd7\xa3p\xfd)@'
tRp50
sg20
F55.464596
sg21
F-8.5204000000000004
sg22
F13.093999999999999
ssS'258.976795'
p51
(dp52
g8
F0.064178341603867303
sg9
F0.031
sg10
F0.032723686124275342
sg11
g12
(g14
S'\x00\x18\x9e^)\xcbp?'
tRp53
sg16
F258.97679499999998
sg17
F0.0019
sg18
g12
(g14
S'\xf81\xe6\xae%D*@'
tRp54
sg20
F55.367161000000003
sg21
F-8.3823000000000008
sg22
F13.129
ssS'258.997978'
p55
(dp56
g8
F0.10110179732980955
sg9
F0.095000000000000001
sg10
F0.038037513503909409
sg11
g12
(g14
S'@\xa85\xcd;N\xd1?'
tRp57
sg16
F258.99797799999999
sg17
F0.0083000000000000001
sg18
g12
(g14
S'\xe0\x9c\x11\xa5\xbd\xc1-@'
tRp58
sg20
F55.459099000000002
sg21
F-6.6369999999999996
sg22
F14.608000000000001
ssS'259.073899'
p59
(dp60
g8
F0.19016527266653882
sg9
F0.043999999999999997
sg10
F0.032999752022706032
sg11
g12
(g14
S'\x00?\xc6\xdc\xb5\x84\xac?'
tRp61
sg16
F259.07389899999998
sg17
F0.0025999999999999999
sg18
g12
(g14
S'\xa4\xdf\xbe\x0e\x9c\x13+@'
tRp62
sg20
F55.362971999999999
sg21
F-7.9771000000000001
sg22
F13.593999999999999
ssS'258.959525'
p63
(dp64
g8
F0.14797963839067874
sg9
F0.063
sg10
F0.033796538780770005
sg11
g12
(g14
S'\x00g\xd5\xe7j+\xa6?'
tRp65
sg16
F258.95952499999999
sg17
F0.0040000000000000001
sg18
g12
(g14
S'\xd2\xde\xe0\x0b\x93\t,@'
tRp66
sg20
F55.392124000000003
sg21
F-7.4966999999999997
sg22
F14.061999999999999
ssS'258.923946'
p67
(dp68
g8
F0.28406977642147924
sg9
F0.039
sg10
F0.033796538780770005
sg11
g12
(g14
S'\x00\xf7\xe4a\xa1\xd6\xb4?'
tRp69
sg16
F258.923946
sg17
F0.0040000000000000001
sg18
g12
(g14
S'6\xab>W[\xf1*@'
tRp70
sg20
F55.338603999999997
sg21
F-8.0440000000000005
sg22
F13.390000000000001
ssS'259.087368'
p71
(dp72
g8
F0.18916911456985852
sg9
F0.029999999999999999
sg10
F0.032660257708108958
sg11
g12
(g14
S'\x00\xa0\xf1\xd2MbP?'
tRp73
sg16
F259.08736800000003
sg17
F0.0016999999999999999
sg18
g12
(g14
S"'1\x08\xac\x1c\xda)@"
tRp74
sg20
F55.353606999999997
sg21
F-8.5893999999999995
sg22
F12.925000000000001
ssS'258.95671'
p75
(dp76
g8
F0.13892468771792149
sg9
F0.021000000000000001
sg10
F0.032447934195570766
sg11
g12
(g14
S'\x00\xff!\xfd\xf6u\xb0?'
tRp77
sg16
F258.95670999999999
sg17
F0.00069999999999999999
sg18
g12
(g14
S"N\xd1\x91\\\xfe\xe3'@"
tRp78
sg20
F55.417107000000001
sg21
F-9.5701000000000001
sg22
F11.881
ssS'258.912491'
p79
(dp80
g8
F0.15057430481886783
sg9
F0.021000000000000001
sg10
F0.032476324200255341
sg11
g12
(g14
S'\x00O\xaf\x94e\x88\xb3?'
tRp81
sg16
F258.91249099999999
sg17
F0.00089999999999999998
sg18
g12
(g14
S'`vO\x1e\x16J(@'
tRp82
sg20
F55.425930000000001
sg21
F-9.3706999999999994
sg22
F12.221
ssS'259.093544'
p83
(dp84
g8
F0.20215686939160454
sg9
F0.035000000000000003
sg10
F0.032955212540053368
sg11
g12
(g14
S'\x00\x116<\xbdR\xb6?'
tRp85
sg16
F259.09354400000001
sg17
F0.0025000000000000001
sg18
g12
(g14
S'\x9f\xab\xad\xd8_\xb6*@'
tRp86
sg20
F55.371803
sg21
F-8.1592000000000002
sg22
F13.269
sssS'upper_red_avgpix'
p87
g12
(g14
S'qt1\xe6\xe7W\xe3?'
tRp88
sS'HJD_mid'
p89
g12
(g14
S'N/\x9c}\t\xbaBA'
tRp90
sS'STOP_CPU'
p91
S'2008-03-21 12:50:53.938367'
p92
sS'sex_faintest'
p93
(g12
(g14
S'\x01M\x84\rO\x0f2@'
tRp94
g12
(g14
S'\xa5\x0b\xd9@&\x88\xc3?'
tRp95
tp96
sS'upper_orange_avgpix'
p97
g12
(g14
S'\xcd\xb1R\xe1(Y\xea?'
tRp98
sS'HJD_start'
p99
g12
(g14
S'[\x93\xf2v\t\xbaBA'
tRp100
sS'STRT_CPU'
p101
S'2008-03-21 10:20:58.672143'
p102
sS'upper_green_avgpix'
p103
g12
(g14
S'\xd2\x86:\xd1\xb3\x04\xec?'
tRp104
sS't_mid'
p105
(F169799.49999999997
F4497.5
tp106
sS'HJD_stop'
p107
g12
(g14
S'A\xcbE\x84\t\xbaBA'
tRp108
sS'Aperture'
p109
I4
sS'upper_orange'
p110
g12
(g14
S'Z\xbc\xd5\xfc\xb9,2@'
tRp111
sS'faintest_s2n'
p112
F7.5858443834609011
sS'zp'
p113
(g12
(g14
S'\xc0[ A\xf1\x835@'
tRp114
g12
(g14
S'1]5\xf5,\x16\x89?'
tRp115
tp116
sS'upper_red'
p117
g12
(g14
S'\t+\xba7u\xf11@'
tRp118
sS'N_dither'
p119
I1
sS'SkyWeightMatchFails'
p120
I77
sS'2mass_abs_avg_dev'
p121
S'0.0704823529412'
p122
sS'Num_UL_apertures'
p123
I23751
sS'FileName'
p124
g2
sS'filter'
p125
S'k'
sS'upper_green'
p126
g12
(g14
S'\x11\x04h\xfad,2@'
tRp127
sS'upper_yellow_avgpix'
p128
g12
(g14
S'\xc2S\xc1H/\xa3\xeb?'
tRp129
sS'upper_yellow'
p130
g12
(g14
S'IU\x0b\xec\xf362@'
tRp131
sS'EXPTIME'
p132
S'5756.4'
p133
ssS'h_long_GRB.308.10_coadd.fits'
p134
(dp135
S'calib_stars'
p136
(dp137
S'258.972339'
p138
(dp139
S'2mass_e_mag'
p140
F0.029000000000000001
sS'new_e_mag'
p141
F0.031942653239829658
sS'delta_mag'
p142
g12
(g14
S'\x00\xc1\xec\x9e<,\xa4?'
tRp143
sS'inst_mag'
p144
F-8.9722000000000008
sS'delta_pos'
p145
F0.11103259799031386
sS'new_mag'
p146
g12
(g14
S'\x1c8gDi/*@'
tRp147
sS'ra'
p148
F258.97233899999998
sS'inst_e_mag'
p149
F0.001
sS'dec'
p150
F55.418858
sS'2mass_mag'
p151
F13.132
ssS'258.912491'
p152
(dp153
g140
F0.024
sg141
F0.031884897616269683
sg142
g12
(g14
S'\x00\x9d3\xa2\xb47\xa8?'
tRp154
sg144
F-9.7700999999999993
sg145
F0.090396850516687555
sg146
g12
(g14
S',C\x1c\xeb\xe2\x96(@'
tRp155
sg148
F258.91249099999999
sg149
F0.00059999999999999995
sg150
F55.425930000000001
sg151
F12.342000000000001
ssS'259.068309'
p156
(dp157
g140
F0.021000000000000001
sg141
F0.031884897616269683
sg142
g12
(g14
S'\x00\x00\x00\x00\x00\x00\xe0<'
tRp158
sg144
F-10.1258
sg145
F0.12209524350331129
sg146
g12
(g14
S"S\xe3\xa5\x9b\xc4\xe0'@"
tRp159
sg148
F259.068309
sg149
F0.00059999999999999995
sg150
F55.342776999999998
sg151
F11.939
ssS'259.049341'
p160
(dp161
g140
F0.036999999999999998
sg141
F0.032177114475975002
sg142
g12
(g14
S'\x00`\x7f\xd9=y\x98?'
tRp162
sg144
F-8.0539000000000005
sg145
F0.10961974855833674
sg146
g12
(g14
S'\x83\rO\xaf\x94\x05,@'
tRp163
sg148
F259.04934100000003
sg149
F0.0019
sg150
F55.379928999999997
sg151
F13.987
ssS'259.013697'
p164
(dp165
g140
F0.029999999999999999
sg141
F0.032055157088992717
sg142
g12
(g14
S'\x00T0*\xa9\x13\x90?'
tRp166
sg144
F-8.4611000000000001
sg145
F0.19224040333095466
sg146
g12
(g14
S'\xbd0\x99*\x185+@'
tRp167
sg148
F259.01369699999998
sg149
F0.0015
sg150
F55.350757999999999
sg151
F13.587999999999999
ssS'258.866758'
p168
(dp169
g140
F0.033000000000000002
sg141
F0.032504822657568828
sg142
g12
(g14
S'\x00H\x84\rO\xaf\x84?'
tRp170
sg144
F-8.0747
sg145
F0.28552927577181625
sg146
g12
(g14
S'\x08\x8a\x1fc\xee\xfa+@'
tRp171
sg148
F258.866758
sg149
F0.0027000000000000001
sg150
F55.347667999999999
sg151
F13.98
ssS'258.886652'
p172
(dp173
g140
F0.058999999999999997
sg141
F0.031982299729694234
sg142
g12
(g14
S'@\x0b\xb5\xa6y\xc7\xc9?'
tRp174
sg144
F-8.7251999999999992
sg145
F0.098929342709551629
sg146
g12
(g14
S'uq\x1b\r\xe0\xad*@'
tRp175
sg148
F258.88665200000003
sg149
F0.0011999999999999999
sg150
F55.464596
sg151
F13.541
ssS'258.976795'
p176
(dp177
g140
F0.024
sg141
F0.031961581562870135
sg142
g12
(g14
S'\x00,\xdd$\x06\x81\x85?'
tRp178
sg144
F-8.8262999999999998
sg145
F0.076098392557329586
sg146
g12
(g14
S'&1\x08\xac\x1cz*@'
tRp179
sg148
F258.97679499999998
sg149
F0.0011000000000000001
sg150
F55.367161000000003
sg151
F13.228
ssS'258.957874'
p180
(dp181
g140
F0.029999999999999999
sg141
F0.032004804264360066
sg142
g12
(g14
S'\x00\xa0\x99\x99\x99\x99\x89?'
tRp182
sg144
F-8.5263000000000009
sg145
F0.32285813648813305
sg146
g12
(g14
S'\xbf\xca\xa1E\xb6\x13+@'
tRp183
sg148
F258.957874
sg149
F0.0012999999999999999
sg150
F55.443741000000003
sg151
F13.551
ssS'259.087368'
p184
(dp185
g140
F0.027
sg141
F0.031942653239829658
sg142
g12
(g14
S'\x804\xef8EG\xb2?'
tRp186
sg144
F-8.9824000000000002
sg145
F0.11711932321085783
sg146
g12
(g14
S'{a2U0**@'
tRp187
sg148
F259.08736800000003
sg149
F0.001
sg150
F55.353606999999997
sg151
F13.010999999999999
ssS'258.997978'
p188
(dp189
g140
F0.070999999999999994
sg141
F0.033633511502666504
sg142
g12
(g14
S'\x00\xbd\xc1\x17&S\xb5?'
tRp190
sg144
F-7.0305
sg145
F0.054981962219967442
sg146
g12
(g14
S'n\x81\x04\xc5\x8f\x11.@'
tRp191
sg148
F258.99797799999999
sg149
F0.0044999999999999997
sg150
F55.459099000000002
sg151
F14.951000000000001
ssS'258.943407'
p192
(dp193
g140
F0.023
sg141
F0.031866827517027796
sg142
g12
(g14
S'\x00\x00\x00\x00\x00\x00\xe0<'
tRp194
sg144
F-10.4678
sg145
F0.28671788566625667
sg146
g12
(g14
S"\x8al\xe7\xfb\xa91'@"
tRp195
sg148
F258.94340699999998
sg149
F0.00040000000000000002
sg150
F55.444695000000003
sg151
F11.597
ssS'258.95671'
p196
(dp197
g140
F0.023
sg141
F0.031874960329387074
sg142
g12
(g14
S'\x00\xdb=yX\xa8\xa5?'
tRp198
sg144
F-10.136100000000001
sg145
F0.15605823918012809
sg146
g12
(g14
S"#\x97\xff\x90~\xdb'@"
tRp199
sg148
F258.95670999999999
sg149
F0.00050000000000000001
sg150
F55.417107000000001
sg151
F11.971
ssS'259.073899'
p200
(dp201
g140
F0.034000000000000002
sg141
F0.032055157088992717
sg142
g12
(g14
S'\x00\x8b\xb0\xe1\xe9\x95\xa2?'
tRp202
sg144
F-8.4001000000000001
sg145
F0.1757596269985566
sg146
g12
(g14
S'iM\xf3\x8eST+@'
tRp203
sg148
F259.07389899999998
sg149
F0.0015
sg150
F55.362971999999999
sg151
F13.701000000000001
ssS'259.093544'
p204
(dp205
g140
F0.029999999999999999
sg141
F0.032029091401411934
sg142
g12
(g14
S'\x00\x98\x99\x99\x99\x99\x89?'
tRp206
sg144
F-8.6442999999999994
sg145
F0.15780397871008983
sg146
g12
(g14
S'\x9d\xef\xa7\xc6K\xd7*@'
tRp207
sg148
F259.09354400000001
sg149
F0.0014
sg150
F55.371803
sg151
F13.407999999999999
sssS'sex_faintest'
p208
(g12
(g14
S'\xadi\xdeq\x8a\x0e3@'
tRp209
g12
(g14
S'\xf6\xe4\xaa\xa6M\xf7\xca?'
tRp210
tp211
sS'STOP_CPU'
p212
S'2008-03-21 12:50:53.938367'
p213
sS'upper_green_avgpix'
p214
g12
(g14
S'%\xa3?W&4\xfc?'
tRp215
sS't_mid'
p216
(F169799.49999999997
F4497.5
tp217
sS'HJD_stop'
p218
g12
(g14
S'A\xcbE\x84\t\xbaBA'
tRp219
sS'Aperture'
p220
I4
sS'zp'
p221
(g12
(g14
S'\xe2\xc7\x98\xbb\x96\x106@'
tRp222
g12
(g14
S'\xd6{\xe1\xc2\xea\xeb\x85?'
tRp223
tp224
sS'upper_red'
p225
g12
(g14
S'?}\xee\xf8V\xef2@'
tRp226
sS'2mass_abs_avg_dev'
p227
S'0.04044'
p228
sS'Num_UL_apertures'
p229
I23220
sS'upper_yellow_avgpix'
p230
g12
(g14
S'\x82\xd1@8\xc7\x04\xfc?'
tRp231
sS'upper_red_avgpix'
p232
g12
(g14
S'\xaa\xdc\xaa+\x9b\xc9\xf3?'
tRp233
sS'HJD_mid'
p234
g12
(g14
S'N/\x9c}\t\xbaBA'
tRp235
sS'upper_orange_avgpix'
p236
g12
(g14
S'\xa0\xe0\xf5\xaf\xf1\xcb\xfa?'
tRp237
sS'HJD_start'
p238
g12
(g14
S'[\x93\xf2v\t\xbaBA'
tRp239
sS'STRT_CPU'
p240
S'2008-03-21 10:20:58.672143'
p241
sS'upper_orange'
p242
g12
(g14
S'8\xcc<c0#3@'
tRp243
sS'N_dither'
p244
I1
sS'SkyWeightMatchFails'
p245
I106
sS'FileName'
p246
g134
sS'filter'
p247
S'h'
sS'upper_green'
p248
g12
(g14
S'"\xd6V`\xb6\x0e3@'
tRp249
sS'faintest_s2n'
p250
F8.9848517968445165
sS'upper_yellow'
p251
g12
(g14
S'\x88\x80DdJ\x043@'
tRp252
sS'EXPTIME'
p253
S'5756.4'
p254
ssS'j_long_GRB.308.10_coadd.fits'
p255
(dp256
S'calib_stars'
p257
(dp258
S'258.972339'
p259
(dp260
S'2mass_e_mag'
p261
F0.027
sS'new_e_mag'
p262
F0.031937897494965006
sS'delta_mag'
p263
g12
(g14
S'\x00\xa8\xf1\xd2Mb\x80?'
tRp264
sS'inst_mag'
p265
F-8.7207000000000008
sS'delta_pos'
p266
F0.038878118328681481
sS'new_mag'
p267
g12
(g14
S'\x88\x16\xd9\xce\xf7\x93+@'
tRp268
sS'ra'
p269
F258.97233899999998
sS'inst_e_mag'
p270
F0.00089999999999999998
sS'dec'
p271
F55.418858
sS'2mass_mag'
p272
F13.797000000000001
ssS'259.049341'
p273
(dp274
g261
F0.033000000000000002
sg262
F0.032095315801513653
sg263
g12
(g14
S'\x00ho\xf0\x85\xc9\xa4?'
tRp275
sg265
F-7.9103000000000003
sg266
F0.12224989238544283
sg267
g12
(g14
S'\xe0q\x8a\x8e\xe42-@'
tRp276
sg269
F259.04934100000003
sg270
F0.0016000000000000001
sg271
F55.379928999999997
sg272
F14.640000000000001
ssS'259.013697'
p277
(dp278
g261
F0.025000000000000001
sg262
F0.031973947150749027
sg263
g12
(g14
S'\x00\x94\x99\x99\x99\x99\x89?'
tRp279
sg265
F-8.5052000000000003
sg266
F0.18901923805254595
sg267
g12
(g14
S'\xfd\xa9\xf1\xd2M\x02,@'
tRp280
sg269
F259.01369699999998
sg270
F0.0011000000000000001
sg271
F55.350757999999999
sg272
F14.016999999999999
ssS'258.866758'
p281
(dp282
g261
F0.032000000000000001
sg262
F0.032339358317673712
sg263
g12
(g14
S'\x00c\xeeZB>\xb8?'
tRp283
sg265
F-7.8944000000000001
sg266
F0.24146723249823118
sg267
g12
(g14
S'&u\x02\x9a\x08;-@'
tRp284
sg269
F258.866758
sg270
F0.0023
sg271
F55.347667999999999
sg272
F14.710000000000001
ssS'258.886652'
p285
(dp286
g261
F0.066000000000000003
sg262
F0.031994657310227465
sg263
g12
(g14
S'\x80(\\\x8f\xc2\xf5\xc8?'
tRp287
sg265
F-8.3766999999999996
sg266
F0.16834719061988226
sg267
g12
(g14
S'l\xbct\x93\x18D,@'
tRp288
sg269
F258.88665200000003
sg270
F0.0011999999999999999
sg271
F55.464596
sg272
F14.327999999999999
ssS'258.976795'
p289
(dp290
g261
F0.025000000000000001
sg262
F0.031922564063666503
sg263
g12
(g14
S'\x00\x1c\x9e^)\xcb\xa0?'
tRp291
sg265
F-8.9259000000000004
sg266
F0.16304492767654946
sg267
g12
(g14
S'C\xcff\xd5\xe7*+@'
tRp292
sg269
F258.97679499999998
sg270
F0.00080000000000000004
sg271
F55.367161000000003
sg272
F13.551
ssS'258.912491'
p293
(dp294
g261
F0.021999999999999999
sg262
F0.031897292932142253
sg263
g12
(g14
S'\x00\x98\x01\xbc\x05\x12t?'
tRp295
sg265
F-9.5486000000000004
sg266
F0.13347996684646182
sg267
g12
(g14
S'\x08_\x98L\x15\xec)@'
tRp296
sg269
F258.91249099999999
sg270
F0.00059999999999999995
sg271
F55.425930000000001
sg272
F12.965999999999999
ssS'259.087368'
p297
(dp298
g261
F0.025999999999999999
sg262
F0.031937897494965006
sg263
g12
(g14
S'\x00X\x9f\xab\xad\xd8\x9f?'
tRp299
sg265
F-8.8965999999999994
sg266
F0.14650397538586471
sg267
g12
(g14
S'\xf0ZB>\xe89+@'
tRp300
sg269
F259.08736800000003
sg270
F0.00089999999999999998
sg271
F55.353606999999997
sg272
F13.582000000000001
ssS'258.997978'
p301
(dp302
g261
F0.067000000000000004
sg262
F0.033078967583630721
sg263
g12
(g14
S'\x00e\xf7\xe4a\xa1\xa6?'
tRp303
sg265
F-6.7888999999999999
sg266
F0.029957602129301101
sg267
g12
(g14
S'\xe3\xe9\x95\xb2\x0cq/@'
tRp304
sg269
F258.99797799999999
sg270
F0.0037000000000000002
sg271
F55.459099000000002
sg272
F15.765000000000001
ssS'259.073899'
p305
(dp306
g261
F0.029999999999999999
sg262
F0.031973947150749027
sg263
g12
(g14
S'\x00n\x8a\x8e\xe4\xf2\x9f?'
tRp307
sg265
F-8.4048999999999996
sg266
F0.1442294353340233
sg267
g12
(g14
S'\xdb=yX\xa85,@'
tRp308
sg269
F259.07389899999998
sg270
F0.0011000000000000001
sg271
F55.362971999999999
sg272
F14.135999999999999
ssS'259.093544'
p309
(dp310
g261
F0.025000000000000001
sg262
F0.031955026152373778
sg263
g12
(g14
S'\x00\xf0&1\x08\xac|?'
tRp311
sg265
F-8.7917000000000005
sg266
F0.095874180781700458
sg267
g12
(g14
S'W\x0e-\xb2\x9do+@'
tRp312
sg269
F259.09354400000001
sg270
F0.001
sg271
F55.371803
sg272
F13.711
sssS'sex_faintest'
p313
(g12
(g14
S'\xd2"\xdb\xf9~\xfa3@'
tRp314
g12
(g14
S'\xcc\x8b\x8b-<\xb0\xc5?'
tRp315
tp316
sS'STOP_CPU'
p317
S'2008-03-21 12:50:53.938367'
p318
sS'upper_green_avgpix'
p319
g12
(g14
S'\xc4%g\x80\x8e\xa9\x10@'
tRp320
sS'Num_UL_apertures'
p321
I22741
sS'HJD_stop'
p322
g12
(g14
S'A\xcbE\x84\t\xbaBA'
tRp323
sS'Aperture'
p324
I4
sS'zp'
p325
(g12
(g14
S'n\xc5\xfe\xb2{\x826@'
tRp326
g12
(g14
S'\x88\xaa8\xf9>\xff\x85?'
tRp327
tp328
sS'upper_red'
p329
g12
(g14
S'\x1b\xe9}\x94\x07\xe33@'
tRp330
sS'2mass_abs_avg_dev'
p331
S'0.0456363636364'
p332
sS't_mid'
p333
(F169799.49999999997
F4497.5
tp334
sS'upper_yellow_avgpix'
p335
g12
(g14
S'\x1b\xd7=>\xca\x99\x10@'
tRp336
sS'upper_red_avgpix'
p337
g12
(g14
S'\xfc\x188\r\x94\x17\x08@'
tRp338
sS'HJD_mid'
p339
g12
(g14
S'N/\x9c}\t\xbaBA'
tRp340
sS'upper_orange_avgpix'
p341
g12
(g14
S'\x9cW\\\xf8e*\x10@'
tRp342
sS'HJD_start'
p343
g12
(g14
S'[\x93\xf2v\t\xbaBA'
tRp344
sS'STRT_CPU'
p345
S'2008-03-21 10:20:58.672143'
p346
sS'upper_orange'
p347
g12
(g14
S'/\xdde=\xb5\xf93@'
tRp348
sS'N_dither'
p349
I1
sS'SkyWeightMatchFails'
p350
I80
sS'FileName'
p351
g255
sS'filter'
p352
S'j'
sS'upper_green'
p353
g12
(g14
S'\x06\x9d\xe7{\xfe\xed3@'
tRp354
sS'faintest_s2n'
p355
F8.0036842677599225
sS'upper_yellow'
p356
g12
(g14
S';\x99\xf4\x93T\xec3@'
tRp357
sS'EXPTIME'
p358
S'5756.4'
p359
ss.