(dp1
S'k_long_GRB.108590.1_coadd_9-10.fits'
p2
(dp3
S'calib_stars'
p4
(dp5
S'220.049441'
p6
(dp7
S'2mass_e_mag'
p8
F0.089999999999999997
sS'new_e_mag'
p9
F0.098197459233933332
sS'delta_mag'
p10
cnumpy.core.multiarray
scalar
p11
(cnumpy
dtype
p12
(S'f8'
I0
I1
tRp13
(I3
S'<'
NNNI-1
I-1
I0
tbS'\x00\x08=\x9bU\x9f\xc7?'
tRp14
sS'inst_mag'
p15
F-7.6430999999999996
sS'delta_pos'
p16
F2.0978946605274658
sS'new_mag'
p17
g11
(g13
S'\x1as\xd7\x12\xf21-@'
tRp18
sS'ra'
p19
F220.049441
sS'inst_e_mag'
p20
F0.038600000000000002
sS'dec'
p21
F-0.114549
sS'2mass_mag'
p22
F14.413
ssS'220.041783'
p23
(dp24
g8
F0.027
sg9
F0.034162461855082982
sg10
g11
(g13
S'\x00\x18\xf2A\xcff\x85?'
tRp25
sg15
F-10.1632
sg16
F1.9756578673717053
sg17
g11
(g13
S"\x82&\xc2\x86\xa7'(@"
tRp26
sg19
F220.04178300000001
sg20
F0.0043
sg21
F-0.200956
sg22
F12.067
ssS'220.048875'
p27
(dp28
g8
F0.104
sg9
F0.089197606470129004
sg10
g11
(g13
S'\x00\xfeC\xfa\xed\xeb\xc4?'
tRp29
sg15
F-7.7610999999999999
sg16
F1.7188184956454424
sg17
g11
(g13
S'\xf8\x97\xdd\x93\x87\xf5,@'
tRp30
sg19
F220.04887500000001
sg20
F0.034599999999999999
sg21
F-0.118968
sg22
F14.643000000000001
ssS'220.12869'
p31
(dp32
g8
F0.087999999999999995
sg9
F0.084968710711649603
sg10
g11
(g13
S'\x80\x83|\xd0\xb3Y\xbd?'
tRp33
sg15
F-7.8282999999999996
sg16
F0.88166902362871435
sg17
g11
(g13
S'\xe0\x02\t\x8a\x1f\xd3,@'
tRp34
sg19
F220.12869000000001
sg20
F0.0327
sg21
F-0.110815
sg22
F14.526999999999999
ssS'220.108846'
p35
(dp36
g8
F0.029000000000000001
sg9
F0.036755040470661977
sg10
g11
(g13
S'\x00\xc8B\xadi\xde\x91?'
tRp37
sg15
F-9.5521999999999991
sg16
F0.41994667017568482
sg17
g11
(g13
S'\xc8\xdc\xb5\x84|`)@'
tRp38
sg19
F220.108846
sg20
F0.0071000000000000004
sg21
F-0.143456
sg22
F12.670999999999999
ssS'220.068892'
p39
(dp40
g8
F0.021000000000000001
sg9
F0.032991662583143636
sg10
g11
(g13
S'\x00\xb0\xa8\xa4N@c?'
tRp41
sg15
F-11.016
sg16
F0.98662082560882147
sg17
g11
(g13
S'\xc3\x17&S\x05s&@'
tRp42
sg19
F220.06889200000001
sg20
F0.0022000000000000001
sg21
F-0.13592099999999999
sg22
F11.227
ssS'220.142816'
p43
(dp44
g8
F0.021000000000000001
sg9
F0.032918253295094499
sg10
g11
(g13
S'\x00\x024\x116<\x9d?'
tRp45
sg15
F-11.202199999999999
sg16
F0.54339907184984171
sg17
g11
(g13
S'\xfb\x0f\xe9\xb7\xaf\x13&@'
tRp46
sg19
F220.14281600000001
sg20
F0.002
sg21
F-0.139483
sg22
F11.067
ssS'220.04723'
p47
(dp48
g8
F0.024
sg9
F0.032637968686791766
sg10
g11
(g13
S'\x00\xd0\xa8\xa4N@c?'
tRp49
sg15
F-12.424300000000001
sg16
F1.5633282476795813
sg17
g11
(g13
S'\xe1-\x90\xa0\xf8\xa1#@'
tRp50
sg19
F220.04723000000001
sg20
F0.00089999999999999998
sg21
F-0.177985
sg22
F9.8140000000000001
ssS'220.150068'
p51
(dp52
g8
F0.023
sg9
F0.032673245936086601
sg10
g11
(g13
S'\x80?\xc6\xdc\xb5\x84\xb4?'
tRp53
sg15
F-12.0525
sg16
F1.7645136069828158
sg17
g11
(g13
S'\x1d|a2U`$@'
tRp54
sg19
F220.150068
sg20
F0.0011000000000000001
sg21
F-0.17136299999999999
sg22
F10.108000000000001
ssS'220.038025'
p55
(dp56
g8
F0.10199999999999999
sg9
F0.09368263980055215
sg10
g11
(g13
S'\x00\x88\xd2\xde\xe0\x0b\xbb?'
tRp57
sg15
F-7.6982999999999997
sg16
F2.2315561559006101
sg17
g11
(g13
S'\xa2\xf81\xe6\xae\x15-@'
tRp58
sg19
F220.038025
sg20
F0.036600000000000001
sg21
F-0.207151
sg22
F14.648
ssS'220.057719'
p59
(dp60
g8
F0.072999999999999995
sg9
F0.075107614793707825
sg10
g11
(g13
S'@V\x0e-\xb2\x9d\xc3?'
tRp61
sg15
F-7.9893999999999998
sg16
F1.5144324634333184
sg17
g11
(g13
S'r=\n\xd7\xa3\x80,@'
tRp62
sg19
F220.05771899999999
sg20
F0.028199999999999999
sg21
F-0.17868500000000001
sg22
F14.098000000000001
ssS'220.0304'
p63
(dp64
g8
F0.037999999999999999
sg9
F0.042380016517221883
sg10
g11
(g13
S'\x00\x89\xb0\xe1\xe9\x95\xba?'
tRp65
sg15
F-9.0145
sg16
F1.9266083802226635
sg17
g11
(g13
S'\x17\xfb\xcb\xee\xc9s*@'
tRp66
sg19
F220.03039999999999
sg20
F0.011299999999999999
sg21
F-0.14829800000000001
sg22
F13.33
sssS'faintest_s2n'
p67
F11.126040462795755
sS'HJD_mid'
p68
g11
(g13
S'\xce\xc51\xf0\x03\xbaBA'
tRp69
sS'STOP_CPU'
p70
S'2008-03-10 09:10:50.099651'
p71
sS'targ_s2n'
p72
F35.750049758900552
sS'sex_faintest'
p73
(g11
(g13
S'\x9a\x99\x99\x99\x99\x010@'
tRp74
g11
(g13
S'\x02\xcc\x0b\xf1\xbe(\xc2?'
tRp75
tp76
sS'N_dither'
p77
I6
sS'HJD_start'
p78
g11
(g13
S';H&\xf0\x03\xbaBA'
tRp79
sS'2mass_abs_avg_dev'
p80
S'0.0805583333333'
p81
sS'STRT_CPU'
p82
S'2008-03-10 09:09:49.503893'
p83
sS't_mid'
p84
(F1941.5000000000002
F30.499999999999996
tp85
sS'FileName'
p86
g2
sS'filter'
p87
S'k'
sS'targ_mag'
p88
(g11
(g13
S'$\xfd\xf6u\xe0\xac,@'
tRp89
F0.07989826656442553
tp90
sS'Aperture'
p91
I6
sS'HJD_stop'
p92
g11
(g13
S'bC=\xf0\x03\xbaBA'
tRp93
sS'targ_flux'
p94
(F1449.5039999999999
F40.54551
tp95
sS'zp'
p96
(g11
(g13
S'L\xc8\x07=\x9b=6@'
tRp97
g11
(g13
S'\xf93\x9d\xc8\x82M\x99?'
tRp98
tp99
sS'EXPTIME'
p100
S'46.8'
p101
ssS'j_long_GRB.108590.1_coadd_11-12.fits'
p102
(dp103
S'calib_stars'
p104
(dp105
S'220.049441'
p106
(dp107
S'2mass_e_mag'
p108
F0.041000000000000002
sS'new_e_mag'
p109
F0.035751994039183013
sS'delta_mag'
p110
g11
(g13
S'\x00P\xd1\x91\\\xfe\xa3?'
tRp111
sS'inst_mag'
p112
F-8.2285000000000004
sS'delta_pos'
p113
F0.33349460904663164
sS'new_mag'
p114
g11
(g13
S'Rt$\x97\xff\x00.@'
tRp115
sS'ra'
p116
F220.049441
sS'inst_e_mag'
p117
F0.010699999999999999
sS'dec'
p118
F-0.114549
sS'2mass_mag'
p119
F15.041
ssS'220.041783'
p120
(dp121
g108
F0.025999999999999999
sg109
F0.025379997592154688
sg110
g11
(g13
S'\x00\xfa\xe4a\xa1\xd6\x94?'
tRp122
sg112
F-10.5388
sg113
F0.25235238258604031
sg114
g11
(g13
S'\x89\x8e\xe4\xf2\x1fb)@'
tRp123
sg116
F220.04178300000001
sg117
F0.0020999999999999999
sg118
F-0.200956
sg119
F12.712
ssS'220.048875'
p124
(dp125
g108
F0.057000000000000002
sg109
F0.042971435602941845
sg110
g11
(g13
S'\x00\x85|\xd0\xb3Y\xc1?'
tRp126
sg112
F-7.851
sg113
F0.54368584663365616
sg114
g11
(g13
S'4\xef8EG\xc2.@'
tRp127
sg116
F220.04887500000001
sg117
F0.0146
sg118
F-0.118968
sg119
F15.515000000000001
ssS'220.12869'
p128
(dp129
g108
F0.033000000000000002
sg109
F0.035238392099779151
sg110
g11
(g13
S'\x00\x0f\xe9\xb7\xaf\x03\xa7?'
tRp130
sg112
F-8.2594999999999992
sg113
F0.66306143549065433
sg114
g11
(g13
S'6\x1a\xc0[ \xf1-@'
tRp131
sg116
F220.12869000000001
sg117
F0.0104
sg118
F-0.110815
sg119
F14.926
ssS'220.108846'
p132
(dp133
g108
F0.023
sg109
F0.025963364145999604
sg110
g11
(g13
S'\x00 \xed\r\xbe0y?'
tRp134
sg112
F-9.9023000000000003
sg113
F0.72049188605202219
sg114
g11
(g13
S'b]\xdcF\x03\xa8*@'
tRp135
sg116
F220.108846
sg117
F0.0030999999999999999
sg118
F-0.143456
sg119
F13.321999999999999
ssS'220.068892'
p136
(dp137
g108
F0.024
sg109
F0.02513369606281133
sg110
g11
(g13
S'\x00kV}\xae\xb6\xa2?'
tRp138
sg112
F-11.5929
sg113
F0.48417502726162326
sg114
g11
(g13
S",!\x1f\xf4lF'@"
tRp139
sg116
F220.06889200000001
sg117
F0.0015
sg118
F-0.13592099999999999
sg119
F11.601000000000001
ssS'220.142816'
p140
(dp141
g108
F0.024
sg109
F0.025100443776510762
sg110
g11
(g13
S'\x00\x0c\xb5\xa6y\xc7\xb1?'
tRp142
sg112
F-11.6729
sg113
F0.85425763287916978
sg114
g11
(g13
S"\x03\xc5\x8f1w\x1d'@"
tRp143
sg116
F220.14281600000001
sg117
F0.0014
sg118
F-0.139483
sg119
F11.627000000000001
ssS'220.04723'
p144
(dp145
g108
F0.024
sg109
F0.024990051576132804
sg110
g11
(g13
S'\x00`\xc3\xd3+e\xb1?'
tRp146
sg112
F-12.670500000000001
sg113
F0.26830127196420045
sg114
g11
(g13
S'V\xca2\xc4\xb1\x1e%@'
tRp147
sg116
F220.04723000000001
sg117
F0.001
sg118
F-0.177985
sg119
F10.492000000000001
ssS'220.150068'
p148
(dp149
g108
F0.028000000000000001
sg109
F0.024990051576132804
sg110
g11
(g13
S'\x000\xed\r\xbe0y?'
tRp150
sg112
F-12.6136
sg113
F0.80036652432223487
sg114
g11
(g13
S'?\x13a\xc3\xd3;%@'
tRp151
sg116
F220.150068
sg117
F0.001
sg118
F-0.17136299999999999
sg119
F10.622999999999999
ssS'220.038025'
p152
(dp153
g108
F0.043999999999999997
sg109
F0.036447664915297079
sg110
g11
(g13
S'\x00\x06_\x98L\x15\xac?'
tRp154
sg112
F-8.1785999999999994
sg113
F0.083892547462525571
sg114
g11
(g13
S'^\x98L\x15\x8c\x1a.@'
tRp155
sg116
F220.038025
sg117
F0.0111
sg118
F-0.207151
sg119
F14.997
ssS'220.057719'
p156
(dp157
g108
F0.047
sg109
F0.036272616086764096
sg110
g11
(g13
S'\x00XK\xc8\x07={?'
tRp158
sg112
F-8.1937999999999995
sg113
F0.41427321431777137
sg114
g11
(g13
S'\xfa\xcb\xee\xc9\xc3\x12.@'
tRp159
sg116
F220.05771899999999
sg117
F0.010999999999999999
sg118
F-0.17868500000000001
sg119
F15.029999999999999
ssS'220.0304'
p160
(dp161
g108
F0.028000000000000001
sg109
F0.028622513477641644
sg110
g11
(g13
S'\x00\xac\xcf\xd5V\xec\xaf?'
tRp162
sg112
F-9.4597999999999995
sg113
F0.17532910675125746
sg114
g11
(g13
S'%S\x05\xa3\x92\x8a+@'
tRp163
sg116
F220.03039999999999
sg117
F0.0058999999999999999
sg118
F-0.14829800000000001
sg119
F13.833
sssS'faintest_s2n'
p164
F8.6923862245940917
sS'HJD_mid'
p165
g11
(g13
S'\\0M\xf0\x03\xbaBA'
tRp166
sS'STOP_CPU'
p167
S'2008-03-10 09:12:02.379931'
p168
sS'targ_s2n'
p169
F57.512109028570919
sS'sex_faintest'
p170
(g11
(g13
S'e\x88c]\xdc\xce1@'
tRp171
g11
(g13
S'\xf2\xd8\xef~\xcc\x12\xc0?'
tRp172
tp173
sS'N_dither'
p174
I6
sS'HJD_start'
p175
g11
(g13
S'\xbf\xb3A\xf0\x03\xbaBA'
tRp176
sS'2mass_abs_avg_dev'
p177
S'0.0458333333333'
p178
sS'STRT_CPU'
p179
S'2008-03-10 09:11:01.804047'
p180
sS't_mid'
p181
(F2013.5000000000002
F30.499999999999996
tp182
sS'FileName'
p183
g102
sS'filter'
p184
S'j'
sS'targ_mag'
p185
(g11
(g13
S'Yd;\xdfO]/@'
tRp186
F0.051732700275336274
tp187
sS'Aperture'
p188
I6
sS'HJD_stop'
p189
g11
(g13
S'\xfa\xacX\xf0\x03\xbaBA'
tRp190
sS'targ_flux'
p191
(F1045.3699999999999
F18.17652
tp192
sS'zp'
p193
(g11
(g13
S'\xfa\\m\xc5\xfe:7@'
tRp194
g11
(g13
S'S\xc7\x9d\x9a\x8d\x9a\x8a?'
tRp195
tp196
sS'EXPTIME'
p197
S'46.8'
p198
ssS'k_long_GRB.108590.1_coadd_3-4.fits'
p199
(dp200
S'calib_stars'
p201
(dp202
S'220.049441'
p203
(dp204
S'2mass_e_mag'
p205
F0.089999999999999997
sS'new_e_mag'
p206
F0.10484594889646429
sS'delta_mag'
p207
g11
(g13
S'\x00\x18\x95\xd4\th\xd0?'
tRp208
sS'inst_mag'
p209
F-7.5391000000000004
sS'delta_pos'
p210
F2.6007488850895633
sS'new_mag'
p211
g11
(g13
S"\xba'\x0f\x0b\xb5V-@"
tRp212
sS'ra'
p213
F220.049441
sS'inst_e_mag'
p214
F0.041500000000000002
sS'dec'
p215
F-0.114549
sS'2mass_mag'
p216
F14.413
ssS'220.041783'
p217
(dp218
g205
F0.027
sg206
F0.034336793676754386
sg207
g11
(g13
S'\x00 e\x19\xe2Xg?'
tRp219
sg209
F-10.1386
sg210
F1.8586983510369119
sg211
g11
(g13
S'N@\x13a\xc3#(@'
tRp220
sg213
F220.04178300000001
sg214
F0.0043
sg215
F-0.200956
sg216
F12.067
ssS'220.048875'
p221
(dp222
g205
F0.104
sg206
F0.077789630414342503
sg207
g11
(g13
S'@*\xa9\x13\xd0D\xd6?'
tRp223
sg209
F-7.9134000000000002
sg210
F2.2468685118093958
sg211
g11
(g13
S'\x9e^)\xcb\x10\x97,@'
tRp224
sg213
F220.04887500000001
sg214
F0.029399999999999999
sg215
F-0.118968
sg216
F14.643000000000001
ssS'220.12869'
p225
(dp226
g205
F0.087999999999999995
sg206
F0.099163869428335633
sg207
g11
(g13
S'\x80\xea\x044\x116\xb4?'
tRp227
sg209
F-7.6025
sg210
F1.4382013901481741
sg211
g11
(g13
S'\xbc\x05\x12\x14?6-@'
tRp228
sg213
F220.12869000000001
sg214
F0.039
sg215
F-0.110815
sg216
F14.526999999999999
ssS'220.108846'
p229
(dp230
g205
F0.029000000000000001
sg206
F0.036698046269522305
sg207
g11
(g13
S'\x00\x84|\xd0\xb3Y\x95?'
tRp231
sg209
F-9.5582999999999991
sg210
F0.53289265469511216
sg211
g11
(g13
S'"\xfd\xf6u\xe0L)@'
tRp232
sg213
F220.108846
sg214
F0.0068999999999999999
sg215
F-0.143456
sg216
F12.670999999999999
ssS'220.068892'
p233
(dp234
g205
F0.021000000000000001
sg206
F0.033172147955777595
sg207
g11
(g13
S'\x00\xa0\x01\xbc\x05\x12d?'
tRp235
sg209
F-10.978999999999999
sg210
F1.408486942583788
sg211
g11
(g13
S'h"lxzu&@'
tRp236
sg213
F220.06889200000001
sg214
F0.0022000000000000001
sg215
F-0.13592099999999999
sg216
F11.227
ssS'220.142816'
p237
(dp238
g205
F0.021000000000000001
sg206
F0.033134794401052194
sg207
g11
(g13
S'\x00x\x9c\xa2#\xb9\xb4?'
tRp239
sg209
F-11.2224
sg210
F0.36293041022073369
sg211
g11
(g13
S'\x0cq\xac\x8b\xdb\xf8%@'
tRp240
sg213
F220.14281600000001
sg214
F0.0020999999999999999
sg215
F-0.139483
sg216
F11.067
ssS'220.04723'
p241
(dp242
g205
F0.024
sg206
F0.032820399144434548
sg207
g11
(g13
S'\x00\xb0\x01\xbc\x05\x12d?'
tRp243
sg209
F-12.3969
sg210
F1.475285642141936
sg211
g11
(g13
S'9#J{\x83\x9f#@'
tRp244
sg213
F220.04723000000001
sg214
F0.00089999999999999998
sg215
F-0.177985
sg216
F9.8140000000000001
ssS'220.150068'
p245
(dp246
g205
F0.023
sg206
F0.032897528782569671
sg207
g11
(g13
S'\x00\xbaI\x0c\x02+\xbf?'
tRp247
sg209
F-11.9787
sg210
F1.22751155677593
sg211
g11
(g13
S'\x12\x83\xc0\xca\xa1u$@'
tRp248
sg213
F220.150068
sg214
F0.0012999999999999999
sg215
F-0.17136299999999999
sg216
F10.108000000000001
ssS'220.038025'
p249
(dp250
g205
F0.10199999999999999
sg206
F0.087481240274701166
sg207
g11
(g13
S'\x00v\xe0\x9c\x11\xa5\xc9?'
tRp251
sg209
F-7.7607999999999997
sg210
F1.988141595770766
sg211
g11
(g13
S'\xda\x1b|a2\xe5,@'
tRp252
sg213
F220.038025
sg214
F0.033799999999999997
sg215
F-0.207151
sg216
F14.648
ssS'220.0304'
p253
(dp254
g205
F0.037999999999999999
sg206
F0.049202351569818281
sg207
g11
(g13
S'@\xe4\x83\x9e\xcd\xaa\xc3?'
tRp255
sg209
F-9.0320999999999998
sg210
F1.9262307816595017
sg211
g11
(g13
S'\x98L\x15\x8cJZ*@'
tRp256
sg213
F220.03039999999999
sg214
F0.015299999999999999
sg215
F-0.14829800000000001
sg216
F13.33
ssS'220.057719'
p257
(dp258
g205
F0.072999999999999995
sg206
F0.076702820026384941
sg207
g11
(g13
S'\x80\xc1\x17&S\x05\xc7?'
tRp259
sg209
F-7.9306000000000001
sg210
F1.2457388773925577
sg211
g11
(g13
S'\x1fc\xeeZB\x8e,@'
tRp260
sg213
F220.05771899999999
sg214
F0.028899999999999999
sg215
F-0.17868500000000001
sg216
F14.098000000000001
sssS'faintest_s2n'
p261
F10.654621114645272
sS'HJD_mid'
p262
g11
(g13
S'R.\xdf\xef\x03\xbaBA'
tRp263
sS'2mass_abs_avg_dev'
p264
S'0.1207'
p265
sS'targ_s2n'
p266
F40.669203780723272
sS'sex_faintest'
p267
(g11
(g13
S'B\xcff\xd5\xe7\xfa/@'
tRp268
g11
(g13
S']Y\xa6\xef\xa7\x1b\xc4?'
tRp269
tp270
sS'N_dither'
p271
I6
sS'HJD_start'
p272
g11
(g13
S'\xd3|\xd3\xef\x03\xbaBA'
tRp273
sS'STOP_CPU'
p274
S'2008-03-10 09:07:12.859204'
p275
sS'STRT_CPU'
p276
S'2008-03-10 09:06:11.193953'
p277
sS't_mid'
p278
(F1723.5
F30.499999999999996
tp279
sS'FileName'
p280
g199
sS'filter'
p281
S'k'
sS'targ_mag'
p282
(g11
(g13
S'\x91~\xfb:p^,@'
tRp283
F0.071963597742191854
tp284
sS'Aperture'
p285
I6
sS'HJD_stop'
p286
g11
(g13
S'\xd1\xdf\xea\xef\x03\xbaBA'
tRp287
sS'targ_flux'
p288
(F1620.3900000000001
F39.843170000000001
tp289
sS'zp'
p290
(g11
(g13
S'\xe8\xd9\xac\xfa\\56@'
tRp291
g11
(g13
S'\x80\xca G\x8c\x8c\x99?'
tRp292
tp293
sS'EXPTIME'
p294
S'46.8'
p295
ssS'j_long_GRB.999.999_deep_coadd.fits'
p296
(dp297
S'calib_stars'
p298
(dp299
S'220.049441'
p300
(dp301
S'delta_pos'
p302
F0.054028695974725996
sS'2mass_e_mag'
p303
F0.041000000000000002
sS'new_e_mag'
p304
F0.032401800297205713
sS'delta_mag'
p305
g11
(g13
S'\x00t\x93\x18\x04V\xae?'
tRp306
sS'ra'
p307
F220.049441
sS'inst_e_mag'
p308
F0.0012999999999999999
sS'new_mag'
p309
g11
(g13
S'.\xb2\x9d\xef\xa7\xf6-@'
tRp310
sS'dec'
p311
F-0.114549
sS'inst_mag'
p312
F-7.8173000000000004
sS'2mass_mag'
p313
F15.041
ssS'220.106263'
p314
(dp315
g302
F0.62591053811542907
sg303
F0.024
sg304
F0.032283368202528064
sg305
g11
(g13
S'\x04+\x87\x16\xd9\x8e\x0b@'
tRp316
sg307
F220.10626300000001
sg308
F0.00059999999999999995
sg309
g11
(g13
S'w\xbe\x9f\x1a/\r*@'
tRp317
sg311
F-0.22015399999999999
sg312
F-9.7733000000000008
sg313
F9.5809999999999995
ssS'220.041783'
p318
(dp319
g302
F0.12963826795216202
sg303
F0.025999999999999999
sg304
F0.032259272504196371
sg305
g11
(g13
S'\x00\x80\xae\xb6b\x7f\x89?'
tRp320
sg307
F220.04178300000001
sg308
F0.00029999999999999997
sg309
g11
(g13
S'\xa6,C\x1c\xebr)@'
tRp321
sg311
F-0.200956
sg312
F-10.0746
sg313
F12.712
ssS'220.048875'
p322
(dp323
g302
F0.33389095252492557
sg303
F0.057000000000000002
sg304
F0.032479037277912043
sg305
g11
(g13
S'\x00\xf8S\xe3\xa5\x9b\xbc?'
tRp324
sg307
F220.04887500000001
sg308
F0.0016000000000000001
sg309
g11
(g13
S'X9\xb4\xc8v\xce.@'
tRp325
sg311
F-0.118968
sg312
F-7.3958000000000004
sg313
F15.515000000000001
ssS'220.12869'
p326
(dp327
g302
F0.20943274632965841
sg303
F0.033000000000000002
sg304
F0.032451537136166601
sg305
g11
(g13
S'\x00M\xf3\x8eSt\xa4?'
tRp328
sg307
F220.12869000000001
sg308
F0.0015
sg309
g11
(g13
S'\xda=yX\xa8\xc5-@'
tRp329
sg311
F-0.110815
sg312
F-7.9130000000000003
sg313
F14.926
ssS'220.108846'
p330
(dp331
g302
F0.23614656762870734
sg303
F0.023
sg304
F0.032265521264966415
sg305
g11
(g13
S'\x00\xde\xb5\x84|\xd0\x93?'
tRp332
sg307
F220.108846
sg308
F0.00040000000000000002
sg309
g11
(g13
S'\xad\xfa\\m\xc5\xae*@'
tRp333
sg311
F-0.143456
sg312
F-9.4577000000000009
sg313
F13.321999999999999
ssS'220.068892'
p334
(dp335
g302
F0.088228491070695164
sg303
F0.024
sg304
F0.032254808362475199
sg305
g11
(g13
S'\x00\xa2\xd64\xef8\xa5?'
tRp336
sg307
F220.06889200000001
sg308
F0.00020000000000000001
sg309
g11
(g13
S"c\xa1\xd64\xefH'@"
tRp337
sg311
F-0.13592099999999999
sg312
F-11.156599999999999
sg313
F11.601000000000001
ssS'220.121644'
p338
(dp339
g302
F0.20798430710337587
sg303
F0.029999999999999999
sg304
F0.03232348778365355
sg305
g11
(g13
S'\x00h\xd5\xe7j+\x96?'
tRp340
sg307
F220.121644
sg308
F0.00089999999999999998
sg309
g11
(g13
S'\xcd\xee\xc9\xc3B=,@'
tRp341
sg311
F-0.236291
sg312
F-8.6793999999999993
sg313
F14.098000000000001
ssS'220.038025'
p342
(dp343
g302
F0.026080234626063674
sg303
F0.043999999999999997
sg304
F0.0323591078755271
sg305
g11
(g13
S'\x00\xb3\x9d\xef\xa7\xc6\xab?'
tRp344
sg307
F220.038025
sg308
F0.0011000000000000001
sg309
g11
(g13
S'\x0b\xd7\xa3p=\x1a.@'
tRp345
sg311
F-0.207151
sg312
F-7.7477999999999998
sg313
F14.997
ssS'220.062332'
p346
(dp347
g302
F0.10006868172240889
sg303
F0.045999999999999999
sg304
F0.03272021794701252
sg305
g11
(g13
S'\x00\xfeC\xfa\xed\xeb\xa0?'
tRp348
sg307
F220.062332
sg308
F0.0023
sg309
g11
(g13
S'\xc7\xdc\xb5\x84|\x80.@'
tRp349
sg311
F-0.24429600000000001
sg312
F-7.5480999999999998
sg313
F15.284000000000001
ssS'220.021296'
p350
(dp351
g302
F0.2887861814174848
sg303
F0.042000000000000003
sg304
F0.032379571684937401
sg305
g11
(g13
S'\x00t\xbe\x9f\x1a/\x8d?'
tRp352
sg307
F220.02129600000001
sg308
F0.0011999999999999999
sg309
g11
(g13
S'\xe6\xd0"\xdb\xf9..@'
tRp353
sg311
F-0.16963500000000001
sg312
F-7.7073
sg313
F15.106
ssS'220.036427'
p354
(dp355
g302
F0.21495328042761025
sg303
F0.041000000000000002
sg304
F0.032379571684937401
sg305
g11
(g13
S'\x80\x8f\xc2\xf5(\\\xb7?'
tRp356
sg307
F220.036427
sg308
F0.0011999999999999999
sg309
g11
(g13
S'\xa6\x9b\xc4 \xb0\xa2-@'
tRp357
sg311
F-0.11174000000000001
sg312
F-7.9813000000000001
sg313
F14.909000000000001
sssS'faintest_s2n'
p358
F19.310496972036766
sS'HJD_mid'
p359
g11
(g13
S'\x96\xa7{t\x04\xbaBA'
tRp360
sS'2mass_abs_avg_dev'
p361
S'0.328616666667'
p362
sS'targ_s2n'
p363
F21.27877006160212
sS'sex_faintest'
p364
(g11
(g13
S'/\xdd$\x06\x81\xed3@'
tRp365
g11
(g13
S'\x14\xfb\nn\x93\x88\xb8?'
tRp366
tp367
sS'N_dither'
p368
I1
sS'HJD_start'
p369
g11
(g13
S':\xe4\xfcc\x04\xbaBA'
tRp370
sS'STOP_CPU'
p371
S'2008-03-11 13:04:10.589444'
p372
sS'STRT_CPU'
p373
S'2008-03-11 06:53:01.742908'
p374
sS't_mid'
p375
(F91237.5
F11134.500000000002
tp376
sS'FileName'
p377
S'j_long_GRB.999.999_deep_coadd.fits'
p378
sS'filter'
p379
S'j'
sS'targ_mag'
p380
(g11
(g13
S'B\xf1c\xcc]s3@'
tRp381
F0.12657765309287416
tp382
sS'Aperture'
p383
I4
sS'HJD_stop'
p384
g11
(g13
S'\xf2j\xfa\x84\x04\xbaBA'
tRp385
sS'targ_flux'
p386
(F21.844529999999999
F1.0265880000000001
tp387
sS'zp'
p388
(g11
(g13
S'j\xdeq\x8a\x8e\xcc6@'
tRp389
g11
(g13
S'\xe7\xda\x98>\x9c>\x88?'
tRp390
tp391
sS'EXPTIME'
p392
S'14180.4'
p393
ssS'h_long_GRB.108590.1_coadd_1-2.fits'
p394
(dp395
S'calib_stars'
p396
(dp397
S'220.049441'
p398
(dp399
S'2mass_e_mag'
p400
F0.058999999999999997
sS'new_e_mag'
p401
F0.050297302821069645
sS'delta_mag'
p402
g11
(g13
S'\x00\x00\x00\x00\x00\x00\xe0<'
tRp403
sS'inst_mag'
p404
F-8.1150000000000002
sS'delta_pos'
p405
F0.16284200920629224
sS'new_mag'
p406
g11
(g13
S'Y9\xb4\xc8v>-@'
tRp407
sS'ra'
p408
F220.049441
sS'inst_e_mag'
p409
F0.017600000000000001
sS'dec'
p410
F-0.114549
sS'2mass_mag'
p411
F14.622
ssS'220.041783'
p412
(dp413
g400
F0.025999999999999999
sg401
F0.028009617474617179
sg402
g11
(g13
S'\x00\xdc\x93\x87\x85Z\xa3?'
tRp414
sg404
F-10.575799999999999
sg405
F0.84555438497621571
sg406
g11
(g13
S'\xfd:p\xce\x88R(@'
tRp415
sg408
F220.04178300000001
sg409
F0.0025999999999999999
sg410
F-0.200956
sg411
F12.199
ssS'220.048875'
p416
(dp417
g400
F0.066000000000000003
sg401
F0.050701079584900166
sg402
g11
(g13
S'`c]\xdcF\x03\xd0?'
tRp418
sg404
F-8.1061999999999994
sg405
F0.35237819053485891
sg406
g11
(g13
S'5\xa2\xb47\xf8B-@'
tRp419
sg408
F220.04887500000001
sg409
F0.0178
sg410
F-0.118968
sg411
F14.881
ssS'220.12869'
p420
(dp421
g400
F0.068000000000000005
sg401
F0.048696031368833124
sg402
g11
(g13
S'\x00x6\xab>W\x9b?'
tRp422
sg404
F-8.1646999999999998
sg405
F1.6569246721038431
sg406
g11
(g13
S'j\x00o\x81\x04%-@'
tRp423
sg408
F220.12869000000001
sg409
F0.016799999999999999
sg410
F-0.110815
sg411
F14.599
ssS'220.108846'
p424
(dp425
g400
F0.029000000000000001
sg401
F0.028788460727770422
sg402
g11
(g13
S'\x00\x8d\x06\xf0\x16H\xa0?'
tRp426
sg404
F-9.9928000000000008
sg405
F1.6764934803961749
sg406
g11
(g13
S'\xcd]K\xc8\x07})@'
tRp427
sg408
F220.108846
sg409
F0.0038
sg410
F-0.143456
sg411
F12.776
ssS'220.068892'
p428
(dp429
g400
F0.027
sg401
F0.027541987420561718
sg402
g11
(g13
S'\x00\xf7\x97\xdd\x93\x87\xb5?'
tRp430
sg404
F-11.3889
sg405
F0.69327572450185393
sg406
g11
(g13
S'\xa8y\xc7):\xb2&@'
tRp431
sg408
F220.06889200000001
sg409
F0.0015
sg410
F-0.13592099999999999
sg411
F11.263999999999999
ssS'220.142816'
p432
(dp433
g400
F0.024
sg401
F0.027483367171334375
sg402
g11
(g13
S'\x00,\xa9\x13\xd0D\x98?'
tRp434
sg404
F-11.6273
sg405
F2.2325211477116205
sg406
g11
(g13
S'\x0f\xbe0\x99*8&@'
tRp435
sg408
F220.14281600000001
sg409
F0.0012999999999999999
sg410
F-0.139483
sg411
F11.086
ssS'220.150068'
p436
(dp437
g400
F0.021000000000000001
sg401
F0.02739099616798155
sg402
g11
(g13
S'\x80\xce\x19Q\xda\x1b\xbc?'
tRp438
sg404
F-12.453200000000001
sg405
F2.4895071895899221
sg406
g11
(g13
S'\xa95\xcd;N\x91$@'
tRp439
sg408
F220.150068
sg409
F0.00089999999999999998
sg410
F-0.17136299999999999
sg411
F10.173999999999999
ssS'220.038025'
p440
(dp441
g400
F0.056000000000000001
sg401
F0.050499024456660345
sg402
g11
(g13
S'\x00\xbd\x96\x90\x0fz\xa6?'
tRp442
sg404
F-8.1051000000000002
sg405
F0.82549081112203282
sg406
g11
(g13
S'P\xaf\x94e\x88C-@'
tRp443
sg408
F220.038025
sg409
F0.0177
sg410
F-0.207151
sg411
F14.587999999999999
ssS'220.057719'
p444
(dp445
g400
F0.045999999999999999
sg401
F0.043669754648662497
sg402
g11
(g13
S'\x80\xda\xac\xfa\\m\xb5?'
tRp446
sg404
F-8.3652999999999995
sg405
F1.0908456291659858
sg406
g11
(g13
S'\xaf\xd8_vO\xbe,@'
tRp447
sg408
F220.05771899999999
sg409
F0.014200000000000001
sg410
F-0.17868500000000001
sg411
F14.288
ssS'220.0304'
p448
(dp449
g400
F0.035000000000000003
sg401
F0.031811058942989939
sg402
g11
(g13
S'\x80\x18s\xd7\x12\xf2\xb1?'
tRp450
sg404
F-9.4311000000000007
sg405
F0.37517887786371845
sg406
g11
(g13
S'\\\xb1\xbf\xec\x9e\x9c*@'
tRp451
sg408
F220.03039999999999
sg409
F0.0067999999999999996
sg410
F-0.14829800000000001
sg411
F13.375999999999999
sssS'faintest_s2n'
p452
F8.9019255645489146
sS'HJD_mid'
p453
g11
(g13
S'v\x8b\xc3\xef\x03\xbaBA'
tRp454
sS'STOP_CPU'
p455
S'2008-03-10 09:05:59.489137'
p456
sS'targ_s2n'
p457
F49.964097109852887
sS'sex_faintest'
p458
(g11
(g13
S'\x80\xd9=yX\xc80@'
tRp459
g11
(g13
S'vR\xfe\xaee\x8a\xbf?'
tRp460
tp461
sS'N_dither'
p462
I6
sS'HJD_start'
p463
g11
(g13
S'\x81\n\xb8\xef\x03\xbaBA'
tRp464
sS'2mass_abs_avg_dev'
p465
S'0.0692545454545'
p466
sS'STRT_CPU'
p467
S'2008-03-10 09:04:58.823726'
p468
sS't_mid'
p469
(F1650.5
F30.499999999999996
tp470
sS'FileName'
p471
g394
sS'filter'
p472
S'h'
sS'targ_mag'
p473
(g11
(g13
S'\xcf\x19Q\xda\x1b\xbc-@'
tRp474
F0.058804145016098826
tp475
sS'Aperture'
p476
I6
sS'HJD_stop'
p477
g11
(g13
S'l\x0c\xcf\xef\x03\xbaBA'
tRp478
sS'targ_flux'
p479
(F1405.5619999999999
F28.131440000000001
tp480
sS'zp'
p481
(g11
(g13
S'\xea&1\x08\xac\xbc6@'
tRp482
g11
(g13
S'\x81s8A\x0e\x9b\x91?'
tRp483
tp484
sS'EXPTIME'
p485
S'46.8'
p486
ssS'k_long_GRB.108590.1_coadd_7-8.fits'
p487
(dp488
S'calib_stars'
p489
(dp490
S'220.049441'
p491
(dp492
S'2mass_e_mag'
p493
F0.089999999999999997
sS'new_e_mag'
p494
F0.1174083327536849
sS'delta_mag'
p495
g11
(g13
S'\x00\x7fj\xbct\x93\xb0?'
tRp496
sS'inst_mag'
p497
F-7.7241999999999997
sS'delta_pos'
p498
F2.5889568516509702
sS'new_mag'
p499
g11
(g13
S'\xf8S\xe3\xa5\x9b\xf4,@'
tRp500
sS'ra'
p501
F220.049441
sS'inst_e_mag'
p502
F0.046899999999999997
sS'dec'
p503
F-0.114549
sS'2mass_mag'
p504
F14.413
ssS'220.041783'
p505
(dp506
g493
F0.027
sg494
F0.034949469237743794
sg495
g11
(g13
S'\x00\x80&\xc2\x86\xa7\x87?'
tRp507
sg497
F-10.1465
sg498
F1.5695189543633798
sg499
g11
(g13
S'\\ A\xf1c\x1c(@'
tRp508
sg501
F220.04178300000001
sg502
F0.0043
sg503
F-0.200956
sg504
F12.067
ssS'220.048875'
p509
(dp510
g493
F0.104
sg494
F0.082426285855908846
sg495
g11
(g13
S'\xc0v\xbe\x9f\x1a/\xd3?'
tRp511
sg497
F-7.8586999999999998
sg498
F1.9083473980882704
sg499
g11
(g13
S':\xb4\xc8v\xbe\xaf,@'
tRp512
sg501
F220.04887500000001
sg502
F0.031399999999999997
sg503
F-0.118968
sg504
F14.643000000000001
ssS'220.12869'
p513
(dp514
g493
F0.087999999999999995
sg494
F0.10892431041783096
sg495
g11
(g13
S'\xc0R\x96!\x8eu\xc5?'
tRp515
sg497
F-7.5072999999999999
sg498
F1.8454978389594714
sg499
g11
(g13
S'2U0*\xa9c-@'
tRp516
sg501
F220.12869000000001
sg502
F0.043200000000000002
sg503
F-0.110815
sg504
F14.526999999999999
ssS'220.108846'
p517
(dp518
g493
F0.029000000000000001
sg494
F0.037487659302762551
sg495
g11
(g13
S'\x00h\x91\xed|?\x95?'
tRp519
sg497
F-9.5517000000000003
sg498
F0.53659374132114457
sg499
g11
(g13
S'\xb0rh\x91\xedL)@'
tRp520
sg501
F220.108846
sg502
F0.0071000000000000004
sg503
F-0.143456
sg504
F12.670999999999999
ssS'220.068892'
p521
(dp522
g493
F0.021000000000000001
sg494
F0.033844252096921858
sg495
g11
(g13
S'\x00\x80&\xc2\x86\xa7\x87?'
tRp523
sg497
F-10.9634
sg498
F1.4407477408746399
sg499
g11
(g13
S'\xee\xeb\xc09#z&@'
tRp524
sg501
F220.06889200000001
sg502
F0.0023
sg503
F-0.13592099999999999
sg504
F11.227
ssS'220.142816'
p525
(dp526
g493
F0.021000000000000001
sg494
F0.033734300052024192
sg495
g11
(g13
S'\x008\xf8\xc2d\xaa\xa0?'
tRp527
sg497
F-11.1675
sg498
F0.54270323128287989
sg499
g11
(g13
S'\xc4\xb1.n\xa3\x11&@'
tRp528
sg501
F220.14281600000001
sg502
F0.002
sg503
F-0.139483
sg504
F11.067
ssS'220.04723'
p529
(dp530
g493
F0.024
sg494
F0.033477201197232714
sg495
g11
(g13
S'\x00J\xea\x044\x11\x96?'
tRp531
sg497
F-12.366400000000001
sg498
F1.273562537953802
sg499
g11
(g13
S'yX\xa85\xcd\xab#@'
tRp532
sg501
F220.04723000000001
sg502
F0.001
sg503
F-0.177985
sg504
F9.8140000000000001
ssS'220.150068'
p533
(dp534
g493
F0.023
sg494
F0.033515032448141829
sg495
g11
(g13
S'\x80w\x9c\xa2#\xb9\xb4?'
tRp535
sg497
F-12.013
sg498
F1.2935156621790891
sg499
g11
(g13
S'\x8d(\xed\r\xbe`$@'
tRp536
sg501
F220.150068
sg502
F0.0011999999999999999
sg503
F-0.17136299999999999
sg504
F10.108000000000001
ssS'220.038025'
p537
(dp538
g493
F0.10199999999999999
sg494
F0.090170397581467943
sg495
g11
(g13
S'\x80\xc0\xca\xa1E\xb6\xc7?'
tRp539
sg497
F-7.7392000000000003
sg498
F1.7772525947536868
sg499
g11
(g13
S'\xb0rh\x91\xed\xec,@'
tRp540
sg501
F220.038025
sg502
F0.0349
sg503
F-0.207151
sg504
F14.648
ssS'220.0304'
p541
(dp542
g493
F0.037999999999999999
sg494
F0.043474459168573905
sg495
g11
(g13
S'\x80\xa85\xcd;N\xb9?'
tRp543
sg497
F-8.9708000000000006
sg498
F2.215692496056139
sg499
g11
(g13
S'\xd8\xf0\xf4JYv*@'
tRp544
sg501
F220.03039999999999
sg502
F0.011599999999999999
sg503
F-0.14829800000000001
sg504
F13.33
ssS'220.057719'
p545
(dp546
g493
F0.072999999999999995
sg494
F0.081987666145585572
sg495
g11
(g13
S'@\x17\xb7\xd1\x00\xde\xce?'
tRp547
sg497
F-7.8628
sg498
F1.0886610749923318
sg499
g11
(g13
S'v\xe0\x9c\x11\xa5\xad,@'
tRp548
sg501
F220.05771899999999
sg502
F0.031199999999999999
sg503
F-0.17868500000000001
sg504
F14.098000000000001
sssS'faintest_s2n'
p549
F9.9950349542767185
sS'HJD_mid'
p550
g11
(g13
S'\x08R\x16\xf0\x03\xbaBA'
tRp551
sS'2mass_abs_avg_dev'
p552
S'0.103025'
p553
sS'targ_s2n'
p554
F37.708374075276943
sS'sex_faintest'
p555
(g11
(g13
S'\xea&1\x08\xacl/@'
tRp556
g11
(g13
S'\x1dF\xe8\x9ay\x99\xbc?'
tRp557
tp558
sS'N_dither'
p559
I6
sS'HJD_start'
p560
g11
(g13
S'8\xcc\n\xf0\x03\xbaBA'
tRp561
sS'STOP_CPU'
p562
S'2008-03-10 09:09:37.799289'
p563
sS'STRT_CPU'
p564
S'2008-03-10 09:08:37.033900'
p565
sS't_mid'
p566
(F1868.9999999999995
F30
tp567
sS'FileName'
p568
g487
sS'filter'
p569
S'k'
sS'targ_mag'
p570
(g11
(g13
S'\xc8\x98\xbb\x96\x90\x7f,@'
tRp571
F0.076762864719863072
tp572
sS'Aperture'
p573
I6
sS'HJD_stop'
p574
g11
(g13
S'\xd8\xd7!\xf0\x03\xbaBA'
tRp575
sS'targ_flux'
p576
(F1517.5029999999999
F40.243130000000001
tp577
sS'zp'
p578
(g11
(g13
S']m\xc5\xfe\xb236@'
tRp579
g11
(g13
S'|\xf7\x0e\xfd\xdfg\x9a?'
tRp580
tp581
sS'EXPTIME'
p582
S'46.8'
p583
ssS'j_long_GRB.108590.1_coadd_1-2.fits'
p584
(dp585
S'calib_stars'
p586
(dp587
S'220.049441'
p588
(dp589
S'2mass_e_mag'
p590
F0.041000000000000002
sS'new_e_mag'
p591
F0.036981491016152626
sS'delta_mag'
p592
g11
(g13
S'\x00F\xfa\xed\xeb\xc0\x99?'
tRp593
sS'inst_mag'
p594
F-8.1484000000000005
sS'delta_pos'
p595
F0.38661253954524372
sS'new_mag'
p596
g11
(g13
S'\xc5B\xadi\xde!.@'
tRp597
sS'ra'
p598
F220.049441
sS'inst_e_mag'
p599
F0.0114
sS'dec'
p600
F-0.114549
sS'2mass_mag'
p601
F15.041
ssS'220.041783'
p602
(dp603
g590
F0.025999999999999999
sg591
F0.025435004969092845
sg592
g11
(g13
S'\x00\xd8\xc7\x98\xbb\x96p?'
tRp604
sg594
F-10.506600000000001
sg595
F0.1485212816812588
sg596
g11
(g13
S'\x0bh"lxj)@'
tRp605
sg598
F220.04178300000001
sg599
F0.0022000000000000001
sg600
F-0.200956
sg601
F12.712
ssS'220.048875'
p606
(dp607
g590
F0.057000000000000002
sg591
F0.044355602552301969
sg592
g11
(g13
S'\x00\x8f\xc2\xf5(\\\xb7?'
tRp608
sg594
F-7.7907999999999999
sg595
F0.65001783917770029
sg596
g11
(g13
S'*\\\x8f\xc2\xf5\xd8.@'
tRp609
sg598
F220.04887500000001
sg599
F0.015299999999999999
sg600
F-0.118968
sg601
F15.515000000000001
ssS'220.12869'
p610
(dp611
g590
F0.033000000000000002
sg591
F0.034403468978836678
sg592
g11
(g13
S'\x00\x8cSt$\x97\x9f?'
tRp612
sg594
F-8.3193999999999999
sg595
F0.59356014077021513
sg596
g11
(g13
S'a\x07\xce\x19Q\xca-@'
tRp613
sg598
F220.12869000000001
sg599
F0.0099000000000000008
sg600
F-0.110815
sg601
F14.926
ssS'220.108846'
p614
(dp615
g590
F0.023
sg591
F0.026111060449123424
sg592
g11
(g13
S"\x00 '1\x08\xac\\?"
tRp616
sg594
F-9.8908000000000005
sg595
F0.68785846303138598
sg596
g11
(g13
S'\xf7(\\\x8f\xc2\xa5*@'
tRp617
sg598
F220.108846
sg599
F0.0033
sg600
F-0.143456
sg601
F13.321999999999999
ssS'220.068892'
p618
(dp619
g590
F0.024
sg591
F0.02507579465894905
sg592
g11
(g13
S'\x00\rq\xac\x8b\xdb\xb0?'
tRp620
sg594
F-11.547700000000001
sg595
F0.33231695629953378
sg596
g11
(g13
S"\xdb\xac\xfa\\mU'@"
tRp621
sg598
F220.06889200000001
sg599
F0.0012999999999999999
sg600
F-0.13592099999999999
sg601
F11.601000000000001
ssS'220.142816'
p622
(dp623
g590
F0.024
sg591
F0.025047065252795139
sg592
g11
(g13
S'\x00\x9c\x80&\xc2\x86\xa7?'
tRp624
sg594
F-11.6335
sg595
F0.8980708586263082
sg596
g11
(g13
S"\x7f\xae\xb6b\x7f)'@"
tRp625
sg598
F220.14281600000001
sg599
F0.0011999999999999999
sg600
F-0.139483
sg601
F11.627000000000001
ssS'220.04723'
p626
(dp627
g590
F0.024
sg591
F0.024937591659536365
sg592
g11
(g13
S'\x00\x84/L\xa6\n\xa6?'
tRp628
sg594
F-12.679500000000001
sg595
F0.12481177908656528
sg596
g11
(g13
S'\x1as\xd7\x12\xf2\x11%@'
tRp629
sg598
F220.04723000000001
sg599
F0.00069999999999999999
sg600
F-0.177985
sg601
F10.492000000000001
ssS'220.150068'
p630
(dp631
g590
F0.028000000000000001
sg591
F0.024954908891394047
sg592
g11
(g13
S'\x00\x18\xd0D\xd8\xf0\x94?'
tRp632
sg594
F-12.571099999999999
sg595
F0.72019681075241859
sg596
g11
(g13
S'\xf18EGrI%@'
tRp633
sg598
F220.150068
sg599
F0.00080000000000000004
sg600
F-0.17136299999999999
sg601
F10.622999999999999
ssS'220.038025'
p634
(dp635
g590
F0.043999999999999997
sg591
F0.036277004807147149
sg592
g11
(g13
S'\x00\\\xf5\xb9\xda\x8a\x9d?'
tRp636
sg594
F-8.1887000000000008
sg595
F0.1512628627037795
sg596
g11
(g13
S'\x064\x116<\r.@'
tRp637
sg598
F220.038025
sg599
F0.010999999999999999
sg600
F-0.207151
sg601
F14.997
ssS'220.0304'
p638
(dp639
g590
F0.028000000000000001
sg591
F0.027220262265043985
sg592
g11
(g13
S'\x00\xc0&1\x08\xac\\?'
tRp640
sg594
F-9.3833000000000002
sg595
F0.2011026807214914
sg596
g11
(g13
S'\x9b\x99\x99\x99\x99\xa9+@'
tRp641
sg598
F220.03039999999999
sg599
F0.0045999999999999999
sg600
F-0.14829800000000001
sg601
F13.833
ssS'220.057719'
p642
(dp643
g590
F0.047
sg591
F0.036102723966174317
sg592
g11
(g13
S'\x00\xbaR\x96!\x8e\x95?'
tRp644
sg594
F-8.2056000000000004
sg595
F0.34166600470724529
sg596
g11
(g13
S'2\x99*\x18\x95\x04.@'
tRp645
sg598
F220.05771899999999
sg599
F0.0109
sg600
F-0.17868500000000001
sg601
F15.029999999999999
sssS'faintest_s2n'
p646
F9.1502826684285488
sS'HJD_mid'
p647
g11
(g13
S'v\x8b\xc3\xef\x03\xbaBA'
tRp648
sS'2mass_abs_avg_dev'
p649
S'0.0316666666667'
p650
sS'targ_s2n'
p651
F61.797814377024388
sS'sex_faintest'
p652
(g11
(g13
S'\xf6\xb9\xda\x8a\xfd\xcd1@'
tRp653
g11
(g13
S'\xad\xca\x1d\xdbv\xd7\xbf?'
tRp654
tp655
sS'N_dither'
p656
I6
sS'HJD_start'
p657
g11
(g13
S'\x81\n\xb8\xef\x03\xbaBA'
tRp658
sS'STOP_CPU'
p659
S'2008-03-10 09:05:59.489137'
p660
sS'STRT_CPU'
p661
S'2008-03-10 09:04:58.823726'
p662
sS't_mid'
p663
(F1650.5
F30.499999999999996
tp664
sS'FileName'
p665
g584
sS'filter'
p666
S'j'
sS'targ_mag'
p667
(g11
(g13
S'\x1d\r\xe0-\x900/@'
tRp668
F0.049023246299870607
tp669
sS'Aperture'
p670
I6
sS'HJD_stop'
p671
g11
(g13
S'l\x0c\xcf\xef\x03\xbaBA'
tRp672
sS'targ_flux'
p673
(F1116.511
F18.067160000000001
tp674
sS'zp'
p675
(g11
(g13
S'X[\xb1\xbf\xec67@'
tRp676
g11
(g13
S'i\xa6\x82\xbb\xf9\xa0\x8a?'
tRp677
tp678
sS'EXPTIME'
p679
S'46.8'
p680
ssS'j_long_GRB.108590.1_coadd_15-16.fits'
p681
(dp682
S'calib_stars'
p683
(dp684
S'220.049441'
p685
(dp686
S'2mass_e_mag'
p687
F0.041000000000000002
sS'new_e_mag'
p688
F0.036273580989168649
sS'delta_mag'
p689
g11
(g13
S'\x00H\xd8\xf0\xf4J\x89?'
tRp690
sS'inst_mag'
p691
F-8.2030999999999992
sS'delta_pos'
p692
F0.63808545149699636
sS'new_mag'
p693
g11
(g13
S'\x90\x0fz6\xab\x0e.@'
tRp694
sS'ra'
p695
F220.049441
sS'inst_e_mag'
p696
F0.010999999999999999
sS'dec'
p697
F-0.114549
sS'2mass_mag'
p698
F15.041
ssS'220.041783'
p699
(dp700
g687
F0.025999999999999999
sg688
F0.025430121466044509
sg689
g11
(g13
S'\x00\x00u\x02\x9a\x08[?'
tRp701
sg691
F-10.5181
sg692
F0.35173418477479185
sg693
g11
(g13
S'\xae\x94e\x88cm)@'
tRp702
sg695
F220.04178300000001
sg696
F0.0022000000000000001
sg697
F-0.200956
sg698
F12.712
ssS'220.048875'
p703
(dp704
g687
F0.057000000000000002
sg688
F0.043364537098622161
sg689
g11
(g13
S'\x00\x82\x04\xc5\x8f1\xbf?'
tRp705
sg691
F-7.8385999999999996
sg692
F0.77133515604196301
sg693
g11
(g13
S'D\xd8\xf0\xf4J\xc9.@'
tRp706
sg695
F220.04887500000001
sg696
F0.014800000000000001
sg697
F-0.118968
sg698
F15.515000000000001
ssS'220.12869'
p707
(dp708
g687
F0.033000000000000002
sg688
F0.034234530488642279
sg689
g11
(g13
S'\x005\xa2\xb47\xf8\xa2?'
tRp709
sg691
F-8.3428000000000004
sg692
F0.71557128056570585
sg693
g11
(g13
S'\xf2\x8eSt$\xc7-@'
tRp710
sg695
F220.12869000000001
sg696
F0.0097999999999999997
sg697
F-0.110815
sg698
F14.926
ssS'220.108846'
p711
(dp712
g687
F0.023
sg688
F0.026106303410819726
sg689
g11
(g13
S'\x00\xdf\xbe\x0e\x9c3\xa2?'
tRp713
sg691
F-9.8742000000000001
sg692
F0.78926530163552511
sg693
g11
(g13
S'\x9d^)\xcb\x10\xb7*@'
tRp714
sg695
F220.108846
sg696
F0.0033
sg697
F-0.143456
sg698
F13.321999999999999
ssS'220.068892'
p715
(dp716
g687
F0.024
sg688
F0.025070841186082642
sg689
g11
(g13
S'\x004^\xbaI\x0c\xa2?'
tRp717
sg691
F-11.595499999999999
sg692
F0.71391913140633256
sg693
g11
(g13
S"\xf5(\\\x8f\xc2E'@"
tRp718
sg695
F220.06889200000001
sg696
F0.0012999999999999999
sg697
F-0.13592099999999999
sg698
F11.601000000000001
ssS'220.142816'
p719
(dp720
g687
F0.024
sg688
F0.025042106097087315
sg689
g11
(g13
S'\x00\x98\xd2\xde\xe0\x0bs?'
tRp721
sg691
F-11.609400000000001
sg692
F1.2364563475027259
sg693
g11
(g13
S"\xc8T\xc1\xa8\xa4>'@"
tRp722
sg695
F220.14281600000001
sg696
F0.0011999999999999999
sg697
F-0.139483
sg698
F11.627000000000001
ssS'220.04723'
p723
(dp724
g687
F0.024
sg688
F0.024932610729279388
sg689
g11
(g13
S'\x00\xde\xbe\x0e\x9c3\xa2?'
tRp725
sg691
F-12.7042
sg692
F0.44048882330661032
sg693
g11
(g13
S't\x02\x9a\x08\x1b\x0e%@'
tRp726
sg695
F220.04723000000001
sg696
F0.00069999999999999999
sg697
F-0.177985
sg698
F10.492000000000001
ssS'220.150068'
p727
(dp728
g687
F0.028000000000000001
sg688
F0.024949931418298078
sg689
g11
(g13
S'\x00@u\x02\x9a\x08[?'
tRp729
sg691
F-12.6104
sg692
F1.0408749465691178
sg693
g11
(g13
S';\xbdR\x96!>%@'
tRp730
sg695
F220.150068
sg696
F0.00080000000000000004
sg697
F-0.17136299999999999
sg698
F10.622999999999999
ssS'220.038025'
p731
(dp732
g687
F0.043999999999999997
sg688
F0.037334679291213653
sg689
g11
(g13
S'\x80\x1c\xc9\xe5?\xa4\xb7?'
tRp733
sg691
F-8.1424000000000003
sg692
F0.34988956535111876
sg693
g11
(g13
S'\x91\xcb\x7fH\xbf-.@'
tRp734
sg695
F220.038025
sg696
F0.011599999999999999
sg697
F-0.207151
sg698
F14.997
ssS'220.057719'
p735
(dp736
g687
F0.047
sg688
F0.036800911371564937
sg689
g11
(g13
S'\x00lV}\xae\xb6\xa2?'
tRp737
sg691
F-8.1652000000000005
sg692
F0.51938132283086247
sg693
g11
(g13
S'\xfb\x18s\xd7\x12".@'
tRp738
sg695
F220.05771899999999
sg696
F0.011299999999999999
sg697
F-0.17868500000000001
sg698
F15.029999999999999
ssS'220.0304'
p739
(dp740
g687
F0.028000000000000001
sg688
F0.026931674247580258
sg689
g11
(g13
S"\x80'1\x08\xac\x1c\xb2?"
tRp741
sg691
F-9.4695
sg692
F0.23596647870630016
sg693
g11
(g13
S'\x82\xc0\xca\xa1E\x86+@'
tRp742
sg695
F220.03039999999999
sg696
F0.0043
sg697
F-0.14829800000000001
sg698
F13.833
sssS'faintest_s2n'
p743
F10.297887022418431
sS'HJD_mid'
p744
g11
(g13
S'\x94\x10\x84\xf0\x03\xbaBA'
tRp745
sS'STOP_CPU'
p746
S'2008-03-10 09:14:27.119637'
p747
sS'targ_s2n'
p748
F51.384592650421013
sS'sex_faintest'
p749
(g11
(g13
S'\x1a/\xdd$\x06\xa91@'
tRp750
g11
(g13
S'\xc9\xd9\x14\x04n\xdf\xbb?'
tRp751
tp752
sS'N_dither'
p753
I6
sS'HJD_start'
p754
g11
(g13
S'\x9d\x8fx\xf0\x03\xbaBA'
tRp755
sS'2mass_abs_avg_dev'
p756
S'0.0404333333333'
p757
sS'STRT_CPU'
p758
S'2008-03-10 09:13:26.454042'
p759
sS't_mid'
p760
(F2158.5
F30.499999999999996
tp761
sS'FileName'
p762
g681
sS'filter'
p763
S'j'
sS'targ_mag'
p764
(g11
(g13
S'0w-!\x1f\xa4/@'
tRp765
F0.056420052089463525
tp766
sS'Aperture'
p767
I6
sS'HJD_stop'
p768
g11
(g13
S'\x8c\x91\x8f\xf0\x03\xbaBA'
tRp769
sS'targ_flux'
p770
(F921.47990000000004
F17.933
tp771
sS'zp'
p772
(g11
(g13
S'\x16\xd9\xce\xf7S;7@'
tRp773
g11
(g13
S'\xbc\x15\x832\xf7\x9b\x8a?'
tRp774
tp775
sS'EXPTIME'
p776
S'46.8'
p777
ssS'h_long_GRB.108590.1_coadd_19-20.fits'
p778
(dp779
S'calib_stars'
p780
(dp781
S'220.049441'
p782
(dp783
S'2mass_e_mag'
p784
F0.058999999999999997
sS'new_e_mag'
p785
F0.046765494802602392
sS'delta_mag'
p786
g11
(g13
S'\x00#\xfd\xf6u\xe0\xac?'
tRp787
sS'inst_mag'
p788
F-8.2141000000000002
sS'delta_pos'
p789
F0.34968700870728198
sS'new_mag'
p790
g11
(g13
S'5<\xbdR\x96!-@'
tRp791
sS'ra'
p792
F220.049441
sS'inst_e_mag'
p793
F0.015900000000000001
sS'dec'
p794
F-0.114549
sS'2mass_mag'
p795
F14.622
ssS'220.041783'
p796
(dp797
g784
F0.025999999999999999
sg785
F0.027744612164026211
sg786
g11
(g13
S'\x00~&\xc2\x86\xa7\x97?'
tRp798
sg788
F-10.557600000000001
sg789
F0.96420476831796909
sg790
g11
(g13
S'\x18\xe2X\x17\xb7q(@'
tRp799
sg792
F220.04178300000001
sg793
F0.0025999999999999999
sg794
F-0.200956
sg795
F12.199
ssS'220.048875'
p800
(dp801
g784
F0.066000000000000003
sg785
F0.047947741387183523
sg786
g11
(g13
S'`\x92\xcb\x7fH\xbf\xd1?'
tRp802
sg788
F-8.1760000000000002
sg789
F0.11728053364258222
sg790
g11
(g13
S'\xbd0\x99*\x185-@'
tRp803
sg792
F220.04887500000001
sg793
F0.016500000000000001
sg794
F-0.118968
sg795
F14.881
ssS'220.12869'
p804
(dp805
g784
F0.068000000000000005
sg785
F0.045020283252465564
sg786
g11
(g13
S'\x80\nh"lx\xba?'
tRp806
sg788
F-8.2841000000000005
sg789
F1.5007532806683905
sg790
g11
(g13
S'\x91\xcb\x7fH\xbf\xfd,@'
tRp807
sg792
F220.12869000000001
sg793
F0.014999999999999999
sg794
F-0.110815
sg795
F14.599
ssS'220.068892'
p808
(dp809
g784
F0.027
sg785
F0.027241797006295882
sg786
g11
(g13
S'\x00\x00\x00\x00\x00\x00\xe0<'
tRp810
sg788
F-11.515700000000001
sg789
F0.55956134584346739
sg790
g11
(g13
S'\xb9I\x0c\x02+\x87&@'
tRp811
sg792
F220.06889200000001
sg793
F0.0014
sg794
F-0.13592099999999999
sg795
F11.263999999999999
ssS'220.142816'
p812
(dp813
g784
F0.024
sg785
F0.027213237663538517
sg786
g11
(g13
S'\x00\x85Z\xd3\xbc\xe3\xb4?'
tRp814
sg788
F-11.6121
sg789
F2.1720898004559981
sg790
g11
(g13
S'\x83\x9e\xcd\xaa\xcfU&@'
tRp815
sg792
F220.14281600000001
sg793
F0.0012999999999999999
sg794
F-0.139483
sg795
F11.086
ssS'220.04723'
p816
(dp817
g784
F0.027
sg785
F0.027101887464385781
sg786
g11
(g13
S'\xa0o_\x07\xce\x19\xd1?'
tRp818
sg788
F-12.583500000000001
sg789
F0.7336989556139919
sg790
g11
(g13
S'L\xf3\x8eStd$@'
tRp819
sg792
F220.04723000000001
sg793
F0.00080000000000000004
sg794
F-0.177985
sg795
F9.9290000000000003
ssS'220.150068'
p820
(dp821
g784
F0.021000000000000001
sg785
F0.027101887464385781
sg786
g11
(g13
S'\x00t$\x97\xff\x90\xae?'
tRp822
sg788
F-12.545999999999999
sg789
F2.4761386272420056
sg790
g11
(g13
S'\x80&\xc2\x86\xa7w$@'
tRp823
sg792
F220.150068
sg793
F0.00080000000000000004
sg794
F-0.17136299999999999
sg795
F10.173999999999999
ssS'220.038025'
p824
(dp825
g784
F0.056000000000000001
sg785
F0.046961536432832247
sg786
g11
(g13
S'\x008\x89A`\xe5\x90?'
tRp826
sg788
F-8.2081999999999997
sg789
F1.0178719058476056
sg790
g11
(g13
S'\xf7S\xe3\xa5\x9b$-@'
tRp827
sg792
F220.038025
sg793
F0.016
sg794
F-0.207151
sg795
F14.587999999999999
ssS'220.057719'
p828
(dp829
g784
F0.045999999999999999
sg785
F0.045985496671583651
sg786
g11
(g13
S'\x00\x00U0*\xa9S?'
tRp830
sg788
F-8.4905000000000008
sg789
F1.0933844392328775
sg790
g11
(g13
S'\xa2\x01\xbc\x05\x12\x94,@'
tRp831
sg792
F220.05771899999999
sg793
F0.0155
sg794
F-0.17868500000000001
sg795
F14.288
sssS'faintest_s2n'
p832
F11.114800813951186
sS'HJD_mid'
p833
g11
(g13
S'\xe0R\xbb\xf0\x03\xbaBA'
tRp834
sS'2mass_abs_avg_dev'
p835
S'0.08864'
p836
sS'targ_s2n'
p837
F40.786852395488552
sS'sex_faintest'
p838
(g11
(g13
S'\x9e^)\xcb\x10\xe70@'
tRp839
g11
(g13
S'\x94HCk\x16\xba\xc0?'
tRp840
tp841
sS'N_dither'
p842
I6
sS'HJD_start'
p843
g11
(g13
S'\x8c\xcd\xaf\xf0\x03\xbaBA'
tRp844
sS'STOP_CPU'
p845
S'2008-03-10 09:16:52.869537'
p846
sS'STRT_CPU'
p847
S'2008-03-10 09:15:52.114165'
p848
sS't_mid'
p849
(F2304
F30
tp850
sS'FileName'
p851
g778
sS'filter'
p852
S'h'
sS'targ_mag'
p853
(g11
(g13
S'\x8c(\xed\r\xbe\x10.@'
tRp854
F0.069327999423986195
tp855
sS'Aperture'
p856
I6
sS'HJD_stop'
p857
g11
(g13
S'3\xd8\xc6\xf0\x03\xbaBA'
tRp858
sS'targ_flux'
p859
(F1255.434
F30.780360000000002
tp860
sS'zp'
p861
(g11
(g13
S'\xf2\xb0Pk\x9a\xc76@'
tRp862
g11
(g13
S'\xc1\xfd/\x03\xf9(\x91?'
tRp863
tp864
sS'EXPTIME'
p865
S'46.8'
p866
ssS'h_long_GRB.108590.1_coadd_13-14.fits'
p867
(dp868
S'calib_stars'
p869
(dp870
S'220.049441'
p871
(dp872
S'2mass_e_mag'
p873
F0.058999999999999997
sS'new_e_mag'
p874
F0.048333942359381363
sS'delta_mag'
p875
g11
(g13
S'\x008\xa4\xdf\xbe\x0e|?'
tRp876
sS'inst_mag'
p877
F-8.1608999999999998
sS'delta_pos'
p878
F0.2375624825502555
sS'new_mag'
p879
g11
(g13
S'\xdf-\x90\xa0\xf8A-@'
tRp880
sS'ra'
p881
F220.049441
sS'inst_e_mag'
p882
F0.016400000000000001
sS'dec'
p883
F-0.114549
sS'2mass_mag'
p884
F14.622
ssS'220.041783'
p885
(dp886
g873
F0.025999999999999999
sg874
F0.028687286103777746
sg875
g11
(g13
S'\x00H\xa4\xdf\xbe\x0e|?'
tRp887
sg877
F-10.5976
sg878
F0.85415256936173556
sg879
g11
(g13
S'P\xda\x1b|ab(@'
tRp888
sg881
F220.04178300000001
sg882
F0.0025000000000000001
sg883
F-0.200956
sg884
F12.199
ssS'220.048875'
p889
(dp890
g873
F0.066000000000000003
sg874
F0.048138703597001856
sg875
g11
(g13
S'\xe0B\xadi\xdeq\xd0?'
tRp891
sg877
F-8.1656999999999993
sg878
F0.18799188388661989
sg879
g11
(g13
S'9#J{\x83?-@'
tRp892
sg881
F220.04887500000001
sg882
F0.016299999999999999
sg883
F-0.118968
sg884
F14.881
ssS'220.12869'
p893
(dp894
g873
F0.068000000000000005
sg874
F0.046400452411587537
sg875
g11
(g13
S'\x00M7\x89A`\xa5?'
tRp895
sg877
F-8.2324999999999999
sg878
F1.6148377573309403
sg879
g11
(g13
S'Yd;\xdfO\x1d-@'
tRp896
sg881
F220.12869000000001
sg882
F0.0154
sg883
F-0.110815
sg884
F14.599
ssS'220.108846'
p897
(dp898
g873
F0.029000000000000001
sg874
F0.02935319376149723
sg875
g11
(g13
S'\x00\xdc=yX\xa8\x95?'
tRp899
sg877
F-10.0349
sg878
F1.6024052857525628
sg879
g11
(g13
S'l\xc5\xfe\xb2{\x82)@'
tRp900
sg881
F220.108846
sg882
F0.0035999999999999999
sg883
F-0.143456
sg884
F12.776
ssS'220.068892'
p901
(dp902
g873
F0.027
sg874
F0.028282863787106139
sg875
g11
(g13
S'\x80\x90~\xfb:p\xb6?'
tRp903
sg877
F-11.4381
sg878
F0.65835734235767673
sg879
g11
(g13
S'\xdbF\x03x\x0b\xb4&@'
tRp904
sg881
F220.06889200000001
sg882
F0.0015
sg883
F-0.13592099999999999
sg884
F11.263999999999999
ssS'220.142816'
p905
(dp906
g873
F0.024
sg874
F0.028225782256653221
sg875
g11
(g13
S'\x00\xb5\x84|\xd0\xb3\xb1?'
tRp907
sg877
F-11.634600000000001
sg878
F2.3133256321505891
sg879
g11
(g13
S'\xe3\xf2\x1f\xd2oO&@'
tRp908
sg881
F220.14281600000001
sg882
F0.0012999999999999999
sg883
F-0.139483
sg884
F11.086
ssS'220.150068'
p909
(dp910
g873
F0.021000000000000001
sg874
F0.028118442062105783
sg875
g11
(g13
S'\x00\xc0\xca\xa1E\xb6\xbb?'
tRp911
sg877
F-12.5075
sg878
F2.5784979578725116
sg879
g11
(g13
S'\x8c\x97n\x12\x83\x90$@'
tRp912
sg881
F220.150068
sg882
F0.00080000000000000004
sg883
F-0.17136299999999999
sg884
F10.173999999999999
ssS'220.038025'
p913
(dp914
g873
F0.056000000000000001
sg874
F0.059366175420015058
sg875
g11
(g13
S'\x00\xc5\xb1.n\xa3\xa1?'
tRp915
sg877
F-8.2362000000000002
sg878
F0.81135661618316945
sg879
g11
(g13
S'\xcef\xd5\xe7j\x1b-@'
tRp916
sg881
F220.038025
sg882
F0.0218
sg883
F-0.207151
sg884
F14.587999999999999
ssS'220.057719'
p917
(dp918
g873
F0.045999999999999999
sg874
F0.041072623290946485
sg875
g11
(g13
S'\x00Dr\xf9\x0f\xe9\x97?'
tRp919
sg877
F-8.4784000000000006
sg878
F0.99604551714426393
sg879
g11
(g13
S'\x1c8gDi\x9f,@'
tRp920
sg881
F220.05771899999999
sg882
F0.012500000000000001
sg883
F-0.17868500000000001
sg884
F14.288
sssS'faintest_s2n'
p921
F12.630515117559899
sS'HJD_mid'
p922
g11
(g13
S'F\x9eh\xf0\x03\xbaBA'
tRp923
sS'STOP_CPU'
p924
S'2008-03-10 09:13:14.749561'
p925
sS'targ_s2n'
p926
F43.760326234306618
sS'sex_faintest'
p927
(g11
(g13
S'*\xa9\x13\xd0D\xd00@'
tRp928
g11
(g13
S'\xe7\x00\xc2\xa6G)\xc5?'
tRp929
tp930
sS'N_dither'
p931
I6
sS'HJD_start'
p932
g11
(g13
S'O\x1d]\xf0\x03\xbaBA'
tRp933
sS'2mass_abs_avg_dev'
p934
S'0.06564'
p935
sS'STRT_CPU'
p936
S'2008-03-10 09:12:14.083992'
p937
sS't_mid'
p938
(F2086
F30
tp939
sS'FileName'
p940
g867
sS'filter'
p941
S'h'
sS'targ_mag'
p942
(g11
(g13
S'J7\x89A`5.@'
tRp943
F0.06579962601717429
tp944
sS'Aperture'
p945
I6
sS'HJD_stop'
p946
g11
(g13
S'=\x1ft\xf0\x03\xbaBA'
tRp947
sS'targ_flux'
p948
(F1186.3140000000001
F27.109349999999999
tp949
sS'zp'
p950
(g11
(g13
S'\x18\x04V\x0e-\xca6@'
tRp951
g11
(g13
S'\x92\xfb?\x91\n\xcc\x92?'
tRp952
tp953
sS'EXPTIME'
p954
S'46.8'
p955
ssS'h_long_GRB.999.999_deep_coadd.fits'
p956
(dp957
g298
(dp958
S'220.049441'
p959
(dp960
g302
F0.057747421691739534
sg303
F0.058999999999999997
sg304
F0.033474676119916877
sg305
g11
(g13
S'\x00P\xd3\xbc\xe3\x14}?'
tRp961
sg307
F220.049441
sg308
F0.0020999999999999999
sg309
g11
(g13
S'\xee\x9e<,\xd4:-@'
tRp962
sg311
F-0.114549
sg312
F-7.3202999999999996
sg313
F14.622
ssS'220.106263'
p963
(dp964
g302
F0.28048885149459452
sg303
F0.025999999999999999
sg304
F0.03310700743548612
sg305
g11
(g13
S'|\x93\x18\x04V\x0e\x05@'
tRp965
sg307
F220.10626300000001
sg308
F0.00040000000000000002
sg309
g11
(g13
S"E\x8bl\xe7\xfb\xe9'@"
tRp966
sg311
F-0.22015399999999999
sg312
F-9.9781999999999993
sg313
F9.3249999999999993
ssS'220.041783'
p967
(dp968
g302
F0.0068727452774959103
sg303
F0.025999999999999999
sg304
F0.03310700743548612
sg305
g11
(g13
S'\x00\x00\xf7u\xe0\x9c\x81?'
tRp969
sg307
F220.04178300000001
sg308
F0.00040000000000000002
sg309
g11
(g13
S'\x99L\x15\x8cJj(@'
tRp970
sg311
F-0.200956
sg312
F-9.7276000000000007
sg313
F12.199
ssS'220.048875'
p971
(dp972
g302
F0.3271888752761804
sg303
F0.066000000000000003
sg304
F0.033474676119916877
sg305
g11
(g13
S'\x80\x07=\x9bU\x9f\xc3?'
tRp973
sg307
F220.04887500000001
sg308
F0.0020999999999999999
sg309
g11
(g13
S'2\x99*\x18\x95t-@'
tRp974
sg311
F-0.118968
sg312
F-7.2074999999999996
sg313
F14.881
ssS'220.108846'
p975
(dp976
g302
F0.27271898484825963
sg303
F0.029000000000000001
sg304
F0.033114835668221779
sg305
g11
(g13
S'\x00\xbe\xec\x9e<,\x94?'
tRp977
sg307
F220.108846
sg308
F0.00050000000000000001
sg309
g11
(g13
S'\xfb\xed\xeb\xc09\x83)@'
tRp978
sg311
F-0.143456
sg312
F-9.1789000000000005
sg313
F12.776
ssS'220.068892'
p979
(dp980
g302
F0.025898488616532472
sg303
F0.027
sg304
F0.033096566911589687
sg305
g11
(g13
S'\x00\x86|\xd0\xb3Y\xa5?'
tRp981
sg307
F220.06889200000001
sg308
F0.00020000000000000001
sg309
g11
(g13
S'@\xc6\xdc\xb5\x84\x9c&@'
tRp982
sg311
F-0.13592099999999999
sg312
F-10.6295
sg313
F11.263999999999999
ssS'220.121644'
p983
(dp984
g302
F0.24405504597493499
sg303
F0.035000000000000003
sg304
F0.033239836662254121
sg305
g11
(g13
S'\x00\xf4\x06_\x98L\x95?'
tRp985
sg307
F220.121644
sg308
F0.0012999999999999999
sg309
g11
(g13
S'\x01\x91~\xfb:p+@'
tRp986
sg311
F-0.236291
sg312
F-8.2159999999999993
sg313
F13.74
ssS'220.038025'
p987
(dp988
g302
F0.21517291191478902
sg303
F0.056000000000000001
sg304
F0.033405777065252253
sg305
g11
(g13
S"\x00'S\x05\xa3\x92\xaa?"
tRp989
sg307
F220.038025
sg308
F0.0019
sg309
g11
(g13
S'\xbak\t\xf9\xa0G-@'
tRp990
sg311
F-0.207151
sg312
F-7.2953000000000001
sg313
F14.587999999999999
ssS'220.062332'
p991
(dp992
g302
F0.017386823084042439
sg303
F0.055
sg304
F0.034525033545723505
sg305
g11
(g13
S'\x00b2U0*\xb9?'
tRp993
sg307
F220.062332
sg308
F0.0041000000000000003
sg309
g11
(g13
S'\xc6\x8f1w-\xc1-@'
tRp994
sg311
F-0.24429600000000001
sg312
F-7.0579000000000001
sg313
F14.779
ssS'220.021296'
p995
(dp996
g302
F0.24490514528923632
sg303
F0.063
sg304
F0.033439383088408395
sg305
g11
(g13
S'\x00-!\x1f\xf4l\xa6?'
tRp997
sg307
F220.02129600000001
sg308
F0.002
sg309
g11
(g13
S'N\xf3\x8eStd-@'
tRp998
sg311
F-0.16963500000000001
sg312
F-7.2389999999999999
sg313
F14.74
ssS'220.036427'
p999
(dp1000
g302
F0.22885313005855118
sg303
F0.057000000000000002
sg304
F0.033439383088408395
sg305
g11
(g13
S'\x00\xc2\xf5(\\\x8f\xb2?'
tRp1001
sg307
F220.036427
sg308
F0.002
sg309
g11
(g13
S'\xde$\x06\x81\x95\xe3,@'
tRp1002
sg311
F-0.11174000000000001
sg312
F-7.4907000000000004
sg313
F14.516999999999999
ssS'220.0304'
p1003
(dp1004
g302
F0.048500355224856434
sg303
F0.035000000000000003
sg304
F0.03313570191399804
sg305
g11
(g13
S'\x00D\xb6\xf3\xfd\xd4\xa8?'
tRp1005
sg307
F220.03039999999999
sg308
F0.00069999999999999999
sg309
g11
(g13
S'I\xe1z\x14\xae\xa7*@'
tRp1006
sg311
F-0.14829800000000001
sg312
F-8.6076999999999995
sg313
F13.375999999999999
sssg358
F12.516381725942576
sg359
g11
(g13
S'\x9b\xa7{t\x04\xbaBA'
tRp1007
sg361
S'0.266516666667'
p1008
sg363
F14.983986695491994
sg364
(g11
(g13
S'Eio\xf0\x85\x992@'
tRp1009
g11
(g13
S'\xfax\x82\xb9\xa7\xcc\xc0?'
tRp1010
tp1011
sg368
I1
sg369
g11
(g13
S'?\xe4\xfcc\x04\xbaBA'
tRp1012
sg371
S'2008-03-11 13:04:10.589444'
p1013
sg373
S'2008-03-11 06:53:01.742908'
p1014
sg375
(F91237.5
F11134.500000000002
tp1015
sg377
S'h_long_GRB.999.999_deep_coadd.fits'
p1016
sg379
S'h'
sg380
(g11
(g13
S'\x98n\x12\x83\xc0\xca2@'
tRp1017
F0.17711903438460061
tp1018
sg383
F3
sg384
g11
(g13
S'\xf7j\xfa\x84\x04\xbaBA'
tRp1019
sg386
(F18.082809999999998
F1.206809
tp1020
sg388
(g11
(g13
S'\x1e8gDi\xef5@'
tRp1021
g11
(g13
S'\x04u\xb4\x8b$\x9c\x8c?'
tRp1022
tp1023
sg392
S'14180.4'
p1024
ssS'k_long_GRB.108590.1_coadd_11-12.fits'
p1025
(dp1026
S'calib_stars'
p1027
(dp1028
S'220.049441'
p1029
(dp1030
S'2mass_e_mag'
p1031
F0.089999999999999997
sS'new_e_mag'
p1032
F0.098270794237148615
sS'delta_mag'
p1033
g11
(g13
S'\x80\x00\xde\x02\t\x8a\xc7?'
tRp1034
sS'inst_mag'
p1035
F-7.6462000000000003
sS'delta_pos'
p1036
F2.6483836557843938
sS'new_mag'
p1037
g11
(g13
S'\xfc\xf6u\xe0\x9c1-@'
tRp1038
sS'ra'
p1039
F220.049441
sS'inst_e_mag'
p1040
F0.038600000000000002
sS'dec'
p1041
F-0.114549
sS'2mass_mag'
p1042
F14.413
ssS'220.041783'
p1043
(dp1044
g1031
F0.027
sg1032
F0.034445507689682846
sg1033
g11
(g13
S'\x00\x14\x8cJ\xea\x04\xa4?'
tRp1045
sg1035
F-10.137
sg1036
F2.0454264485365057
sg1037
g11
(g13
S'\x106<\xbdR6(@'
tRp1046
sg1039
F220.04178300000001
sg1040
F0.0044000000000000003
sg1041
F-0.200956
sg1042
F12.067
ssS'220.048875'
p1047
(dp1048
g1031
F0.104
sg1032
F0.089278334437869061
sg1033
g11
(g13
S'\x80\xe8\xd9\xac\xfa\\\xc5?'
tRp1049
sg1035
F-7.7670000000000003
sg1036
F1.9915242588816733
sg1037
g11
(g13
S'N@\x13a\xc3\xf3,@'
tRp1050
sg1039
F220.04887500000001
sg1040
F0.034599999999999999
sg1041
F-0.118968
sg1042
F14.643000000000001
ssS'220.12869'
p1051
(dp1052
g1031
F0.087999999999999995
sg1032
F0.096011650334738033
sg1033
g11
(g13
S'\x00\x10X9\xb4\xc8\xa6?'
tRp1053
sg1035
F-7.6715999999999998
sg1036
F1.0177373216471279
sg1037
g11
(g13
S'\xf7S\xe3\xa5\x9b$-@'
tRp1054
sg1039
F220.12869000000001
sg1040
F0.037600000000000001
sg1041
F-0.110815
sg1042
F14.526999999999999
ssS'220.108846'
p1055
(dp1056
g1031
F0.029000000000000001
sg1032
F0.03662406039750371
sg1033
g11
(g13
S'\x00\xa3#\xb9\xfc\x87\xa4?'
tRp1057
sg1035
F-9.6121999999999996
sg1036
F0.4452456987376372
sg1037
g11
(g13
S'\xc1\x17&S\x05C)@'
tRp1058
sg1039
F220.108846
sg1040
F0.0067999999999999996
sg1041
F-0.143456
sg1042
F12.670999999999999
ssS'220.068892'
p1059
(dp1060
g1031
F0.021000000000000001
sg1032
F0.033209302913490973
sg1033
g11
(g13
S'\x00\x90\x06\xf0\x16H\x90?'
tRp1061
sg1035
F-11.032
sg1036
F1.1697283244297481
sg1037
g11
(g13
S'\x06_\x98L\x15l&@'
tRp1062
sg1039
F220.06889200000001
sg1040
F0.0022000000000000001
sg1041
F-0.13592099999999999
sg1042
F11.227
ssS'220.142816'
p1063
(dp1064
g1031
F0.021000000000000001
sg1032
F0.033102462144076229
sg1033
g11
(g13
S'\x00\xf4\xd2Mb\x10\x98?'
tRp1065
sg1035
F-11.1996
sg1036
F0.22897693484448464
sg1037
g11
(g13
S'\x82\xc0\xca\xa1E\x16&@'
tRp1066
sg1039
F220.14281600000001
sg1040
F0.0019
sg1041
F-0.139483
sg1042
F11.067
ssS'220.04723'
p1067
(dp1068
g1031
F0.024
sg1032
F0.032857951853394629
sg1033
g11
(g13
S'\x00\x8c\x06\xf0\x16H\x90?'
tRp1069
sg1035
F-12.4132
sg1036
F1.5882020646128507
sg1037
g11
(g13
S'\x9a\xe6\x1d\xa7\xe8\xa8#@'
tRp1070
sg1039
F220.04723000000001
sg1040
F0.00089999999999999998
sg1041
F-0.177985
sg1042
F9.8140000000000001
ssS'220.150068'
p1071
(dp1072
g1031
F0.023
sg1032
F0.032958595237054626
sg1033
g11
(g13
S'\x00\xde\xe0\x0b\x93\xa9\xb2?'
tRp1073
sg1035
F-12.062200000000001
sg1036
F1.2692418066263114
sg1037
g11
(g13
S'Z\xb1\xbf\xec\x9e\\$@'
tRp1074
sg1039
F220.150068
sg1040
F0.0014
sg1041
F-0.17136299999999999
sg1042
F10.108000000000001
ssS'220.038025'
p1075
(dp1076
g1031
F0.10199999999999999
sg1032
F0.085274954119014326
sg1033
g11
(g13
S'\xc0w\x9c\xa2#\xb9\xcc?'
tRp1077
sg1035
F-7.8194999999999997
sg1036
F2.083094967697813
sg1037
g11
(g13
S'\xd3+e\x19\xe2\xd8,@'
tRp1078
sg1039
F220.038025
sg1040
F0.032800000000000003
sg1041
F-0.207151
sg1042
F14.648
ssS'220.0304'
p1079
(dp1080
g1031
F0.037999999999999999
sg1032
F0.051226838668807194
sg1033
g11
(g13
S'\x80n\xa3\x01\xbc\x05\xb2?'
tRp1081
sg1035
F-8.9834999999999994
sg1036
F1.9738998248754054
sg1037
g11
(g13
S'L\x15\x8cJ\xea\x84*@'
tRp1082
sg1039
F220.03039999999999
sg1040
F0.016400000000000001
sg1041
F-0.14829800000000001
sg1042
F13.33
ssS'220.057719'
p1083
(dp1084
g1031
F0.072999999999999995
sg1032
F0.080426444655971194
sg1033
g11
(g13
S'\xc0+\xd4\x9a\xe6\x1d\xcf?'
tRp1085
sg1035
F-7.9020000000000001
sg1036
F1.7446433767078893
sg1037
g11
(g13
S'\xc8T\xc1\xa8\xa4\xae,@'
tRp1086
sg1039
F220.05771899999999
sg1040
F0.030599999999999999
sg1041
F-0.17868500000000001
sg1042
F14.098000000000001
sssS'faintest_s2n'
p1087
F13.392024392192926
sS'HJD_mid'
p1088
g11
(g13
S'\\0M\xf0\x03\xbaBA'
tRp1089
sS'2mass_abs_avg_dev'
p1090
S'0.09505'
p1091
sS'targ_s2n'
p1092
F34.374446747037872
sS'sex_faintest'
p1093
(g11
(g13
S'vO\x1e\x16jm/@'
tRp1094
g11
(g13
S'\xc9\x95\xe0\x8b\x0f\x0e\xbc?'
tRp1095
tp1096
sS'N_dither'
p1097
I6
sS'HJD_start'
p1098
g11
(g13
S'\xbf\xb3A\xf0\x03\xbaBA'
tRp1099
sS'STOP_CPU'
p1100
S'2008-03-10 09:12:02.379931'
p1101
sS'STRT_CPU'
p1102
S'2008-03-10 09:11:01.804047'
p1103
sS't_mid'
p1104
(F2013.5000000000002
F30.499999999999996
tp1105
sS'FileName'
p1106
g1025
sS'filter'
p1107
S'k'
sS'targ_mag'
p1108
(g11
(g13
S'\xe3\x14\x1d\xc9\xe5\xbf,@'
tRp1109
F0.082623755663852508
tp1110
sS'Aperture'
p1111
I6
sS'HJD_stop'
p1112
g11
(g13
S'\xfa\xacX\xf0\x03\xbaBA'
tRp1113
sS'targ_flux'
p1114
(F1403.7840000000001
F40.838009999999997
tp1115
sS'zp'
p1116
(g11
(g13
S'X\xa85\xcd;>6@'
tRp1117
g11
(g13
S'\x9f\x81o\xf3}\x99\x99?'
tRp1118
tp1119
sS'EXPTIME'
p1120
S'46.8'
p1121
ssS'h_long_GRB.108590.1_coadd_17-18.fits'
p1122
(dp1123
S'calib_stars'
p1124
(dp1125
S'220.049441'
p1126
(dp1127
S'2mass_e_mag'
p1128
F0.058999999999999997
sS'new_e_mag'
p1129
F0.049235061806715656
sS'delta_mag'
p1130
g11
(g13
S'\x00\xda=yX\xa8\xa5?'
tRp1131
sS'inst_mag'
p1132
F-8.0945
sS'delta_pos'
p1133
F0.25019058447694653
sS'new_mag'
p1134
g11
(g13
S'2w-!\x1fT-@'
tRp1135
sS'ra'
p1136
F220.049441
sS'inst_e_mag'
p1137
F0.017299999999999999
sS'dec'
p1138
F-0.114549
sS'2mass_mag'
p1139
F14.622
ssS'220.041783'
p1140
(dp1141
g1128
F0.025999999999999999
sg1129
F0.027080592886994017
sg1130
g11
(g13
S'\x00j+\xf6\x97\xdd\xa3?'
tRp1142
sg1132
F-10.598599999999999
sg1133
F0.99793586743318152
sg1134
g11
(g13
S'o\xa3\x01\xbc\x05R(@'
tRp1143
sg1136
F220.04178300000001
sg1137
F0.0023999999999999998
sg1138
F-0.200956
sg1139
F12.199
ssS'220.048875'
p1144
(dp1145
g1128
F0.066000000000000003
sg1129
F0.049235061806715656
sg1130
g11
(g13
S'\xc0\xbe\x0e\x9c3\xa2\xcc?'
tRp1146
sg1132
F-8.1014999999999997
sg1133
F0.45670413702314011
sg1134
g11
(g13
S"UR'\xa0\x89P-@"
tRp1147
sg1136
F220.04887500000001
sg1137
F0.017299999999999999
sg1138
F-0.118968
sg1139
F14.881
ssS'220.12869'
p1148
(dp1149
g1128
F0.068000000000000005
sg1129
F0.045455720334311181
sg1130
g11
(g13
S'\x80\xa6y\xc7):\xb2?'
tRp1150
sg1132
F-8.2309999999999999
sg1133
F1.8593564246425709
sg1134
g11
(g13
S'Y\xa85\xcd;\x0e-@'
tRp1151
sg1136
F220.12869000000001
sg1137
F0.0154
sg1138
F-0.110815
sg1139
F14.599
ssS'220.108846'
p1152
(dp1153
g1128
F0.029000000000000001
sg1129
F0.027988485330776851
sg1130
g11
(g13
S'\x00"A\xf1c\xcc\x9d?'
tRp1154
sg1132
F-9.9536999999999995
sg1133
F1.8811948008958288
sg1134
g11
(g13
S'\xeb\x044\x116\x9c)@'
tRp1155
sg1136
F220.108846
sg1137
F0.0038
sg1138
F-0.143456
sg1139
F12.776
ssS'220.068892'
p1156
(dp1157
g1128
F0.027
sg1129
F0.026644235982874624
sg1130
g11
(g13
S'\x004\xcd;N\xd1\x81?'
tRp1158
sg1132
F-11.503500000000001
sg1133
F0.90737938461896095
sg1134
g11
(g13
S'mV}\xae\xb6\x82&@'
tRp1159
sg1136
F220.06889200000001
sg1137
F0.0012999999999999999
sg1138
F-0.13592099999999999
sg1139
F11.263999999999999
ssS'220.142816'
p1160
(dp1161
g1128
F0.024
sg1129
F0.026617199535471626
sg1130
g11
(g13
S'\x00\x1c\x9e^)\xcb\x90?'
tRp1162
sg1132
F-11.6564
sg1133
F2.4618918024351344
sg1134
g11
(g13
S'\x878\xd6\xc5m4&@'
tRp1163
sg1136
F220.14281600000001
sg1137
F0.0011999999999999999
sg1138
F-0.139483
sg1139
F11.086
ssS'220.04723'
p1164
(dp1165
g1128
F0.027
sg1129
F0.026514209607512551
sg1130
g11
(g13
S'\x008\xcd;N\xd1\x81?'
tRp1166
sg1132
F-12.821099999999999
sg1133
F0.78753384364589563
sg1134
g11
(g13
S'\x1d\xeb\xe26\x1a\xe0#@'
tRp1167
sg1136
F220.04723000000001
sg1137
F0.00069999999999999999
sg1138
F-0.177985
sg1139
F9.9290000000000003
ssS'220.150068'
p1168
(dp1169
g1128
F0.021000000000000001
sg1129
F0.026530497754680575
sg1130
g11
(g13
S'\x80\xf3\x1f\xd2o_\xb7?'
tRp1170
sg1132
F-12.493499999999999
sg1133
F2.6623599460095808
sg1134
g11
(g13
S'\xf3A\xcff\xd5\x87$@'
tRp1171
sg1136
F220.150068
sg1137
F0.00080000000000000004
sg1138
F-0.17136299999999999
sg1139
F10.173999999999999
ssS'220.038025'
p1172
(dp1173
g1128
F0.056000000000000001
sg1129
F0.047826838815785339
sg1130
g11
(g13
S'\x00,C\x1c\xeb\xe2\xa6?'
tRp1174
sg1132
F-8.2155000000000005
sg1133
F1.0238591398964687
sg1134
g11
(g13
S'g\xd5\xe7j+\x16-@'
tRp1175
sg1136
F220.038025
sg1137
F0.0166
sg1138
F-0.207151
sg1139
F14.587999999999999
ssS'220.057719'
p1176
(dp1177
g1128
F0.045999999999999999
sg1129
F0.040909912137660612
sg1130
g11
(g13
S'\x00\x10z6\xab>\xa7?'
tRp1178
sg1132
F-8.4253999999999998
sg1133
F1.1351062386499389
sg1134
g11
(g13
S'\n\xf9\xa0g\xb3\xaa,@'
tRp1179
sg1136
F220.05771899999999
sg1137
F0.012999999999999999
sg1138
F-0.17868500000000001
sg1139
F14.288
ssS'220.0304'
p1180
(dp1181
g1128
F0.035000000000000003
sg1129
F0.029678519355101105
sg1130
g11
(g13
S'\x008\xd6\xc5m4\xb0?'
tRp1182
sg1132
F-9.4460999999999995
sg1133
F0.52351194498995068
sg1134
g11
(g13
S'\x1d\xeb\xe26\x1a\xa0*@'
tRp1183
sg1136
F220.03039999999999
sg1137
F0.0055999999999999999
sg1138
F-0.14829800000000001
sg1139
F13.375999999999999
sssS'faintest_s2n'
p1184
F8.7269123962519366
sS'HJD_mid'
p1185
g11
(g13
S'\x96~\x9f\xf0\x03\xbaBA'
tRp1186
sS'STOP_CPU'
p1187
S'2008-03-10 09:15:39.401017'
p1188
sS'targ_s2n'
p1189
F42.727683422938341
sS'sex_faintest'
p1190
(g11
(g13
S'\xb2\x9d\xef\xa7\xc6+1@'
tRp1191
g11
(g13
S')]\x11\xa7f\xfb\xcd?'
tRp1192
tp1193
sS'N_dither'
p1194
I6
sS'HJD_start'
p1195
g11
(g13
S'\xec\x01\x94\xf0\x03\xbaBA'
tRp1196
sS'2mass_abs_avg_dev'
p1197
S'0.0569666666667'
p1198
sS'STRT_CPU'
p1199
S'2008-03-10 09:14:38.824137'
p1200
sS't_mid'
p1201
(F2230.5
F30.499999999999996
tp1202
sS'FileName'
p1203
g1122
sS'filter'
p1204
S'h'
sS'targ_mag'
p1205
(g11
(g13
S'\xa95\xcd;N1.@'
tRp1206
F0.066455266993001458
tp1207
sS'Aperture'
p1208
I6
sS'HJD_stop'
p1209
g11
(g13
S'?\xfb\xaa\xf0\x03\xbaBA'
tRp1210
sS'targ_flux'
p1211
(F1161.4349999999999
F27.182259999999999
tp1212
sS'zp'
p1213
(g11
(g13
S'n4\x80\xb7@\xc26@'
tRp1214
g11
(g13
S'Z\x87])\\2\x90?'
tRp1215
tp1216
sS'EXPTIME'
p1217
S'46.8'
p1218
ssS'j_long_GRB.108590.1_coadd_5-6.fits'
p1219
(dp1220
S'calib_stars'
p1221
(dp1222
S'220.049441'
p1223
(dp1224
S'2mass_e_mag'
p1225
F0.041000000000000002
sS'new_e_mag'
p1226
F0.037212464011104902
sS'delta_mag'
p1227
g11
(g13
S'\x00[ A\xf1c\xb4?'
tRp1228
sS'inst_mag'
p1229
F-8.2043999999999997
sS'delta_pos'
p1230
F0.25597631819208605
sS'new_mag'
p1231
g11
(g13
S'\xec\x044\x116\xec-@'
tRp1232
sS'ra'
p1233
F220.049441
sS'inst_e_mag'
p1234
F0.0115
sS'dec'
p1235
F-0.114549
sS'2mass_mag'
p1236
F15.041
ssS'220.041783'
p1237
(dp1238
g1225
F0.025999999999999999
sg1226
F0.025563213369562476
sg1227
g11
(g13
S'\x00\x12\x8cJ\xea\x04\x94?'
tRp1239
sg1229
F-10.4733
sg1230
F0.13983967908583197
sg1231
g11
(g13
S'\xfd:p\xce\x88b)@'
tRp1240
sg1233
F220.04178300000001
sg1234
F0.0023
sg1235
F-0.200956
sg1236
F12.712
ssS'220.048875'
p1241
(dp1242
g1225
F0.057000000000000002
sg1226
F0.044997345230333059
sg1227
g11
(g13
S'\x00\xfa\xed\xeb\xc09\xc7?'
tRp1243
sg1229
F-7.8322000000000003
sg1230
F0.52888889659318672
sg1231
g11
(g13
S'`)\xcb\x10\xc7\xaa.@'
tRp1244
sg1233
F220.04887500000001
sg1234
F0.015599999999999999
sg1235
F-0.118968
sg1236
F15.515000000000001
ssS'220.12869'
p1245
(dp1246
g1225
F0.033000000000000002
sg1226
F0.036506123839402306
sg1227
g11
(g13
S'\x00p\xf2\xb0Pkz?'
tRp1247
sg1229
F-8.2462
sg1230
F0.4148429128931479
sg1231
g11
(g13
S'\xd9\x12\xf2A\xcf\xd6-@'
tRp1248
sg1233
F220.12869000000001
sg1234
F0.0111
sg1235
F-0.110815
sg1236
F14.926
ssS'220.108846'
p1249
(dp1250
g1225
F0.023
sg1226
F0.026335669305673205
sg1227
g11
(g13
S'\x00pK\xc8\x07={?'
tRp1251
sg1229
F-9.8370999999999995
sg1230
F0.52742219251057154
sg1231
g11
(g13
S',\xa9\x13\xd0D\xa8*@'
tRp1252
sg1233
F220.108846
sg1234
F0.0035000000000000001
sg1235
F-0.143456
sg1236
F13.321999999999999
ssS'220.068892'
p1253
(dp1254
g1225
F0.024
sg1226
F0.025154361009132743
sg1227
g11
(g13
S'\x00D`\xe5\xd0"\x8b?'
tRp1255
sg1229
F-11.551500000000001
sg1230
F0.19273118892240951
sg1231
g11
(g13
S'\xd2"\xdb\xf9~:\'@'
tRp1256
sg1233
F220.06889200000001
sg1234
F0.0012999999999999999
sg1235
F-0.13592099999999999
sg1236
F11.601000000000001
ssS'220.142816'
p1257
(dp1258
g1225
F0.024
sg1226
F0.025154361009132743
sg1227
g11
(g13
S'\x00\x88\xf2\xb0Pkz?'
tRp1259
sg1229
F-11.532299999999999
sg1230
F0.86877046175037331
sg1231
g11
(g13
S"lM\xf3\x8eSD'@"
tRp1260
sg1233
F220.14281600000001
sg1234
F0.0012999999999999999
sg1235
F-0.139483
sg1236
F11.627000000000001
ssS'220.04723'
p1261
(dp1262
g1225
F0.024
sg1226
F0.02503385463283227
sg1227
g11
(g13
S'\x00\xe0\xae%\xe4\x83~?'
tRp1263
sg1229
F-12.6812
sg1230
F0.12650332741709874
sg1231
g11
(g13
S'\xba\x8d\x06\xf0\x16\xf8$@'
tRp1264
sg1233
F220.04723000000001
sg1234
F0.00080000000000000004
sg1235
F-0.177985
sg1236
F10.492000000000001
ssS'220.150068'
p1265
(dp1266
g1225
F0.028000000000000001
sg1226
F0.02503385463283227
sg1227
g11
(g13
S'\x00@\x89A`\xe5\x80?'
tRp1267
sg1229
F-12.5345
sg1230
F0.70633634416183122
sg1231
g11
(g13
S'53333C%@'
tRp1268
sg1233
F220.150068
sg1234
F0.00080000000000000004
sg1235
F-0.17136299999999999
sg1236
F10.622999999999999
ssS'220.038025'
p1269
(dp1270
g1225
F0.043999999999999997
sg1226
F0.038292676555416932
sg1227
g11
(g13
S'\x00\x90uq\x1b\r\xa0?'
tRp1271
sg1229
F-8.1373999999999995
sg1230
F0.24459636011327726
sg1231
g11
(g13
S'\xe8\xae%\xe4\x83\x0e.@'
tRp1272
sg1233
F220.038025
sg1234
F0.0121
sg1235
F-0.207151
sg1236
F14.997
ssS'220.0304'
p1273
(dp1274
g1225
F0.028000000000000001
sg1226
F0.029182561192907276
sg1227
g11
(g13
S'\x00\xe0\x1b|a2\x85?'
tRp1275
sg1229
F-9.3224
sg1230
F0.14845766151056025
sg1231
g11
(g13
S'\xc9):\x92\xcb\xaf+@'
tRp1276
sg1233
F220.03039999999999
sg1234
F0.0063
sg1235
F-0.14829800000000001
sg1236
F13.833
ssS'220.057719'
p1277
(dp1278
g1225
F0.047
sg1226
F0.037390815420070438
sg1227
g11
(g13
S'\x00\xe8\x95\xb2\x0cq\xac?'
tRp1279
sg1229
F-8.1913
sg1230
F0.37697493384288944
sg1231
g11
(g13
S'\xa7,C\x1c\xeb\xf2-@'
tRp1280
sg1233
F220.05771899999999
sg1234
F0.011599999999999999
sg1235
F-0.17868500000000001
sg1236
F15.029999999999999
sssS'faintest_s2n'
p1281
F10.96165352280274
sS'HJD_mid'
p1282
g11
(g13
S'\xa2\xd6\xfa\xef\x03\xbaBA'
tRp1283
sS'2mass_abs_avg_dev'
p1284
S'0.0355333333333'
p1285
sS'targ_s2n'
p1286
F53.982768678342929
sS'sex_faintest'
p1287
(g11
(g13
S'\x15\xaeG\xe1z\x1c1@'
tRp1288
g11
(g13
S'[:\xf9a\x89\xcf\xba?'
tRp1289
tp1290
sS'N_dither'
p1291
I6
sS'HJD_start'
p1292
g11
(g13
S'pQ\xef\xef\x03\xbaBA'
tRp1293
sS'STOP_CPU'
p1294
S'2008-03-10 09:08:25.329263'
p1295
sS'STRT_CPU'
p1296
S'2008-03-10 09:07:24.576557'
p1297
sS't_mid'
p1298
(F1796.5
F30.499999999999996
tp1299
sS'FileName'
p1300
g1219
sS'filter'
p1301
S'j'
sS'targ_mag'
p1302
(g11
(g13
S'T\x96!\x8euA/@'
tRp1303
F0.054314869766738626
tp1304
sS'Aperture'
p1305
I6
sS'HJD_stop'
p1306
g11
(g13
S'\xd5[\x06\xf0\x03\xbaBA'
tRp1307
sS'targ_flux'
p1308
(F1035.5250000000001
F19.182510000000001
tp1309
sS'zp'
p1310
(g11
(g13
S'\xe0O\x8d\x97n*7@'
tRp1311
g11
(g13
S'\x97yt\xbd\x14\xf0\x8a?'
tRp1312
tp1313
sS'EXPTIME'
p1314
S'46.8'
p1315
ssS'j_long_GRB.108590.1_coadd_13-14.fits'
p1316
(dp1317
S'calib_stars'
p1318
(dp1319
S'220.049441'
p1320
(dp1321
S'2mass_e_mag'
p1322
F0.041000000000000002
sS'new_e_mag'
p1323
F0.036680281133055673
sS'delta_mag'
p1324
g11
(g13
S'\x00f\xaa`TR\xa7?'
tRp1325
sS'inst_mag'
p1326
F-8.2573000000000008
sS'delta_pos'
p1327
F0.45607280813125511
sS'new_mag'
p1328
g11
(g13
S'<\x9bU\x9f\xab\xfd-@'
tRp1329
sS'ra'
p1330
F220.049441
sS'inst_e_mag'
p1331
F0.010800000000000001
sS'dec'
p1332
F-0.114549
sS'2mass_mag'
p1333
F15.041
ssS'220.041783'
p1334
(dp1335
g1322
F0.025999999999999999
sg1323
F0.026485373774972478
sg1324
g11
(g13
S'\x00\x82sF\x94\xf6\xa6?'
tRp1336
sg1326
F-10.585599999999999
sg1327
F0.34696134082508712
sg1328
g11
(g13
S'\x84\rO\xaf\x94U)@'
tRp1337
sg1330
F220.04178300000001
sg1331
F0.0022000000000000001
sg1332
F-0.200956
sg1333
F12.712
ssS'220.048875'
p1338
(dp1339
g1322
F0.057000000000000002
sg1323
F0.043412401730381141
sg1324
g11
(g13
S'\xc0(\xed\r\xbe0\xc5?'
tRp1340
sg1326
F-7.9032999999999998
sg1327
F0.69109887927816582
sg1328
g11
(g13
S'\xa5,C\x1c\xeb\xb2.@'
tRp1341
sg1330
F220.04887500000001
sg1331
F0.014500000000000001
sg1332
F-0.118968
sg1333
F15.515000000000001
ssS'220.12869'
p1342
(dp1343
g1322
F0.033000000000000002
sg1323
F0.036008307708083144
sg1324
g11
(g13
S'\x00|\xd0\xb3Y\xf5\x99?'
tRp1344
sg1326
F-8.3013999999999992
sg1327
F0.86809057679410384
sg1328
g11
(g13
S'e\x19\xe2X\x17\xe7-@'
tRp1345
sg1330
F220.12869000000001
sg1331
F0.0104
sg1332
F-0.110815
sg1333
F14.926
ssS'220.108846'
p1346
(dp1347
g1322
F0.023
sg1323
F0.027066197073102087
sg1324
g11
(g13
S'\x00\xb0\xc8v\xbe\x9fj?'
tRp1348
sg1326
F-9.9339999999999993
sg1327
F0.81271774878994607
sg1328
g11
(g13
S'33333\xa3*@'
tRp1349
sg1330
F220.108846
sg1331
F0.0032000000000000002
sg1332
F-0.143456
sg1333
F13.321999999999999
ssS'220.068892'
p1350
(dp1351
g1322
F0.024
sg1323
F0.026113043177691871
sg1324
g11
(g13
S'\x00hM\xf3\x8eS\x94?'
tRp1352
sg1326
F-11.6319
sg1327
F0.53914047485668182
sg1328
g11
(g13
S"uq\x1b\r\xe0='@"
tRp1353
sg1330
F220.06889200000001
sg1331
F0.0011999999999999999
sg1332
F-0.13592099999999999
sg1333
F11.601000000000001
ssS'220.142816'
p1354
(dp1355
g1322
F0.024
sg1323
F0.026113043177691871
sg1324
g11
(g13
S'\x00\xa0\xc8v\xbe\x9fj?'
tRp1356
sg1326
F-11.6225
sg1327
F1.2017049655393364
sg1328
g11
(g13
S"\xa5\x9b\xc4 \xb0B'@"
tRp1357
sg1330
F220.14281600000001
sg1331
F0.0011999999999999999
sg1332
F-0.139483
sg1333
F11.627000000000001
ssS'220.150068'
p1358
(dp1359
g1322
F0.028000000000000001
sg1323
F0.026024661842183463
sg1324
g11
(g13
S'\x00\xa6\x9b\xc4 \xb0\x92?'
tRp1360
sg1326
F-12.611499999999999
sg1327
F1.225763320477441
sg1328
g11
(g13
S'\xb8\x1e\x85\xebQH%@'
tRp1361
sg1330
F220.150068
sg1331
F0.00080000000000000004
sg1332
F-0.17136299999999999
sg1333
F10.622999999999999
ssS'220.038025'
p1362
(dp1363
g1322
F0.043999999999999997
sg1323
F0.043798116671838756
sg1324
g11
(g13
S'\x00\x16HP\xfc\x18\x93?'
tRp1364
sg1326
F-8.2370999999999999
sg1327
F0.48177895374224655
sg1328
g11
(g13
S'c]\xdcF\x03\x08.@'
tRp1365
sg1330
F220.038025
sg1331
F0.0147
sg1332
F-0.207151
sg1333
F14.997
ssS'220.057719'
p1366
(dp1367
g1322
F0.047
sg1323
F0.03702102948325451
sg1324
g11
(g13
S'\x00\x04\x9a\x08\x1b\x9e\x8e?'
tRp1368
sg1326
F-8.2377000000000002
sg1327
F0.52319605708913308
sg1328
g11
(g13
S'\x0e\x9c3\xa2\xb4\x07.@'
tRp1369
sg1330
F220.05771899999999
sg1331
F0.010999999999999999
sg1332
F-0.17868500000000001
sg1333
F15.029999999999999
sssS'faintest_s2n'
p1370
F9.2261181060715334
sS'HJD_mid'
p1371
g11
(g13
S'F\x9eh\xf0\x03\xbaBA'
tRp1372
sS'2mass_abs_avg_dev'
p1373
S'0.03595'
p1374
sS'targ_s2n'
p1375
F54.866335687351629
sS'sex_faintest'
p1376
(g11
(g13
S'Y\x868\xd6\xc5\xd51@'
tRp1377
g11
(g13
S'\xdf\x1elbe\xac\xc0?'
tRp1378
tp1379
sS'N_dither'
p1380
I6
sS'HJD_start'
p1381
g11
(g13
S'O\x1d]\xf0\x03\xbaBA'
tRp1382
sS'STOP_CPU'
p1383
S'2008-03-10 09:13:14.749561'
p1384
sS'STRT_CPU'
p1385
S'2008-03-10 09:12:14.083992'
p1386
sS't_mid'
p1387
(F2086
F30
tp1388
sS'FileName'
p1389
g1316
sS'filter'
p1390
S'j'
sS'targ_mag'
p1391
(g11
(g13
S'\xfc\xa9\xf1\xd2Mr/@'
tRp1392
F0.054145609461894506
tp1393
sS'Aperture'
p1394
I6
sS'HJD_stop'
p1395
g11
(g13
S'=\x1ft\xf0\x03\xbaBA'
tRp1396
sS'targ_flux'
p1397
(F1027.5509999999999
F18.728259999999999
tp1398
sS'zp'
p1399
(g11
(g13
S'b\x10X9\xb4@7@'
tRp1400
g11
(g13
S'\xc2-K\x80\xc1\x9f\x8e?'
tRp1401
tp1402
sS'EXPTIME'
p1403
S'46.8'
p1404
ssS'h_long_GRB.108590.1_coadd_7-8.fits'
p1405
(dp1406
S'calib_stars'
p1407
(dp1408
S'220.049441'
p1409
(dp1410
S'2mass_e_mag'
p1411
F0.058999999999999997
sS'new_e_mag'
p1412
F0.046803371920626571
sS'delta_mag'
p1413
g11
(g13
S"\x00/\xbb'\x0f\x0b\xa5?"
tRp1414
sS'inst_mag'
p1415
F-8.1760000000000002
sS'delta_pos'
p1416
F0.11639111310504656
sS'new_mag'
p1417
g11
(g13
S')~\x8c\xb9k)-@'
tRp1418
sS'ra'
p1419
F220.049441
sS'inst_e_mag'
p1420
F0.015900000000000001
sS'dec'
p1421
F-0.114549
sS'2mass_mag'
p1422
F14.622
ssS'220.041783'
p1423
(dp1424
g1411
F0.025999999999999999
sg1412
F0.027978770936917436
sg1413
g11
(g13
S'\x008\xab>W[\xa1?'
tRp1425
sg1415
F-10.523999999999999
sg1416
F0.57469466975946903
sg1417
g11
(g13
S'\x11z6\xab>w(@'
tRp1426
sg1419
F220.04178300000001
sg1420
F0.0028999999999999998
sg1421
F-0.200956
sg1422
F12.199
ssS'220.048875'
p1427
(dp1428
g1411
F0.066000000000000003
sg1412
F0.048381571110708003
sg1413
g11
(g13
S'\xc0\xc7\x98\xbb\x96\x90\xcf?'
tRp1429
sg1415
F-8.1225000000000005
sg1416
F0.32098001468746662
sg1417
g11
(g13
S'1*\xa9\x13\xd0D-@'
tRp1430
sg1419
F220.04887500000001
sg1420
F0.0167
sg1421
F-0.118968
sg1422
F14.881
ssS'220.12869'
p1431
(dp1432
g1411
F0.068000000000000005
sg1412
F0.047392240115239279
sg1413
g11
(g13
S'\x00\x00\x00\x00\x00\x00\xe0<'
tRp1433
sg1415
F-8.1578999999999997
sg1416
F1.3408301546969099
sg1417
g11
(g13
S'\xa7\x9b\xc4 \xb02-@'
tRp1434
sg1419
F220.12869000000001
sg1420
F0.016199999999999999
sg1421
F-0.110815
sg1422
F14.599
ssS'220.108846'
p1435
(dp1436
g1411
F0.029000000000000001
sg1412
F0.028517090018802684
sg1413
g11
(g13
S'\x00\x80\x7fH\xbf}M?'
tRp1437
sg1415
F-9.9817999999999998
sg1416
F1.4489631384863217
sg1417
g11
(g13
S'\\B>\xe8\xd9\x8c)@'
tRp1438
sg1419
F220.108846
sg1420
F0.0037000000000000002
sg1421
F-0.143456
sg1422
F12.776
ssS'220.068892'
p1439
(dp1440
g1411
F0.027
sg1412
F0.027306768815451153
sg1413
g11
(g13
S'\x00\xfe\x18s\xd7\x12\xa2?'
tRp1441
sg1415
F-11.457599999999999
sg1416
F0.38312704013569499
sg1417
g11
(g13
S'\xb8b\x7f\xd9=\x99&@'
tRp1442
sg1419
F220.06889200000001
sg1420
F0.0014
sg1421
F-0.13592099999999999
sg1422
F11.263999999999999
ssS'220.142816'
p1443
(dp1444
g1411
F0.024
sg1412
F0.027278277495848151
sg1413
g11
(g13
S'\x00m\t\xf9\xa0g\xa3?'
tRp1445
sg1415
F-11.632999999999999
sg1416
F2.1535437793655055
sg1417
g11
(g13
S'\xe6\xf2\x1f\xd2o?&@'
tRp1446
sg1419
F220.14281600000001
sg1420
F0.0012999999999999999
sg1421
F-0.139483
sg1422
F11.086
ssS'220.150068'
p1447
(dp1448
g1411
F0.021000000000000001
sg1412
F0.027185209639443573
sg1413
g11
(g13
S'\x00\xbeR\x96!\x8e\xb5?'
tRp1449
sg1415
F-12.498699999999999
sg1416
F2.2546438673212732
sg1417
g11
(g13
S'\x88\xa7W\xca2\x84$@'
tRp1450
sg1419
F220.150068
sg1420
F0.00089999999999999998
sg1421
F-0.17136299999999999
sg1422
F10.173999999999999
ssS'220.038025'
p1451
(dp1452
g1411
F0.056000000000000001
sg1412
F0.046218217437937768
sg1413
g11
(g13
S'\x005\xab>W[\xa1?'
tRp1453
sg1415
F-8.2027999999999999
sg1416
F0.61704852852600067
sg1417
g11
(g13
S'^m\xc5\xfe\xb2\x1b-@'
tRp1454
sg1419
F220.038025
sg1420
F0.015599999999999999
sg1421
F-0.207151
sg1422
F14.587999999999999
ssS'220.0304'
p1455
(dp1456
g1411
F0.035000000000000003
sg1412
F0.030800967892916867
sg1413
g11
(g13
S'\x00\xa7W\xca2\xc4\xb1?'
tRp1457
sg1415
F-9.4503000000000004
sg1416
F0.45522275692596786
sg1417
g11
(g13
S'?\xe8\xd9\xac\xfa\x9c*@'
tRp1458
sg1419
F220.03039999999999
sg1420
F0.0061000000000000004
sg1421
F-0.14829800000000001
sg1422
F13.375999999999999
ssS'220.057719'
p1459
(dp1460
g1411
F0.045999999999999999
sg1412
F0.040605758497293157
sg1413
g11
(g13
S'\x00\x1a&S\x05\xa3\x92?'
tRp1461
sg1415
F-8.4506999999999994
sg1416
F0.79626619535394028
sg1417
g11
(g13
S'\x07\x12\x14?\xc6\x9c,@'
tRp1462
sg1419
F220.05771899999999
sg1420
F0.0126
sg1421
F-0.17868500000000001
sg1422
F14.288
sssS'faintest_s2n'
p1463
F9.0335812122192536
sS'HJD_mid'
p1464
g11
(g13
S'\x08R\x16\xf0\x03\xbaBA'
tRp1465
sS'2mass_abs_avg_dev'
p1466
S'0.0546727272727'
p1467
sS'targ_s2n'
p1468
F51.80255118002826
sS'sex_faintest'
p1469
(g11
(g13
S'0\xdd$\x06\x81\xd50@'
tRp1470
g11
(g13
S'\xde\t*}\x92\x12\xbf?'
tRp1471
tp1472
sS'N_dither'
p1473
I6
sS'HJD_start'
p1474
g11
(g13
S'8\xcc\n\xf0\x03\xbaBA'
tRp1475
sS'STOP_CPU'
p1476
S'2008-03-10 09:09:37.799289'
p1477
sS'STRT_CPU'
p1478
S'2008-03-10 09:08:37.033900'
p1479
sS't_mid'
p1480
(F1868.9999999999995
F30
tp1481
sS'FileName'
p1482
g1405
sS'filter'
p1483
S'h'
sS'targ_mag'
p1484
(g11
(g13
S'\xb7\xf3\xfd\xd4x\xc9-@'
tRp1485
F0.057223509357085887
tp1486
sS'Aperture'
p1487
I6
sS'HJD_stop'
p1488
g11
(g13
S'\xd8\xd7!\xf0\x03\xbaBA'
tRp1489
sS'targ_flux'
p1490
(F1397.4939999999999
F26.977319999999999
tp1491
sS'zp'
p1492
(g11
(g13
S'\xa8W\xca2\xc4\xc16@'
tRp1493
g11
(g13
S'6,\x070\x9bD\x91?'
tRp1494
tp1495
sS'EXPTIME'
p1496
S'46.8'
p1497
ssS'j_long_GRB.108590.1_coadd_9-10.fits'
p1498
(dp1499
S'calib_stars'
p1500
(dp1501
S'220.049441'
p1502
(dp1503
S'2mass_e_mag'
p1504
F0.041000000000000002
sS'new_e_mag'
p1505
F0.036639752698097973
sS'delta_mag'
p1506
g11
(g13
S'\x00\xa0j\xbct\x93X?'
tRp1507
sS'inst_mag'
p1508
F-8.2033000000000005
sS'delta_pos'
p1509
F0.49529563107273838
sS'new_mag'
p1510
g11
(g13
S'\xf7(\\\x8f\xc2\x15.@'
tRp1511
sS'ra'
p1512
F220.049441
sS'inst_e_mag'
p1513
F0.0112
sS'dec'
p1514
F-0.114549
sS'2mass_mag'
p1515
F15.041
ssS'220.041783'
p1516
(dp1517
g1504
F0.025999999999999999
sg1505
F0.025452219505924776
sg1506
g11
(g13
S'\x00@\xc3\xd3+ei?'
tRp1518
sg1508
F-10.536899999999999
sg1509
F0.23490315455516486
sg1510
g11
(g13
S'\xd2D\xd8\xf0\xf4j)@'
tRp1519
sg1512
F220.04178300000001
sg1513
F0.0022000000000000001
sg1514
F-0.200956
sg1515
F12.712
ssS'220.048875'
p1520
(dp1521
g1504
F0.057000000000000002
sg1505
F0.04318119356592378
sg1506
g11
(g13
S'\xc0\xdd\x02\t\x8a\x1f\xc3?'
tRp1522
sg1508
F-7.8802000000000003
sg1509
F0.73831967591997849
sg1510
g11
(g13
S'\xd1\xd5V\xec/\xbb.@'
tRp1523
sg1512
F220.04887500000001
sg1513
F0.0147
sg1514
F-0.118968
sg1515
F15.515000000000001
ssS'220.12869'
p1524
(dp1525
g1504
F0.033000000000000002
sg1505
F0.038252564329437806
sg1506
g11
(g13
S'\x00\xba\x1e\x85\xebQ\xa8?'
tRp1526
sg1508
F-8.2722999999999995
sg1509
F0.70444800949713304
sg1510
g11
(g13
S'\xe1O\x8d\x97n\xf2-@'
tRp1527
sg1512
F220.12869000000001
sg1513
F0.0121
sg1514
F-0.110815
sg1515
F14.926
ssS'220.108846'
p1528
(dp1529
g1504
F0.023
sg1505
F0.026056083316142849
sg1506
g11
(g13
S'\x00@j\xbct\x93X?'
tRp1530
sg1508
F-9.9253
sg1509
F0.74793658967676135
sg1510
g11
(g13
S'l\xbct\x93\x18\xa4*@'
tRp1531
sg1512
F220.108846
sg1513
F0.0032000000000000002
sg1514
F-0.143456
sg1515
F13.321999999999999
ssS'220.068892'
p1532
(dp1533
g1504
F0.024
sg1505
F0.025064546231236218
sg1506
g11
(g13
S'\x00\x9f\xef\xa7\xc6K\xa7?'
tRp1534
sg1508
F-11.599299999999999
sg1509
F0.58888639759819306
sg1510
g11
(g13
S"`\xbaI\x0c\x02K'@"
tRp1535
sg1512
F220.06889200000001
sg1513
F0.0011999999999999999
sg1514
F-0.13592099999999999
sg1515
F11.601000000000001
ssS'220.142816'
p1536
(dp1537
g1504
F0.024
sg1505
F0.025064546231236218
sg1506
g11
(g13
S'\x00T[\xb1\xbf\xec\x8e?'
tRp1538
sg1508
F-11.633900000000001
sg1509
F1.133969647897308
sg1510
g11
(g13
S"F\xd8\xf0\xf4J9'@"
tRp1539
sg1512
F220.14281600000001
sg1513
F0.0011999999999999999
sg1514
F-0.139483
sg1515
F11.627000000000001
ssS'220.04723'
p1540
(dp1541
g1504
F0.024
sg1505
F0.024955149323892607
sg1506
g11
(g13
S'\x00l+\xf6\x97\xdd\xa3?'
tRp1542
sg1508
F-12.715
sg1509
F0.38406287925730187
sg1510
g11
(g13
S'\x02o\x81\x04\xc5\x0f%@'
tRp1543
sg1512
F220.04723000000001
sg1513
F0.00069999999999999999
sg1514
F-0.177985
sg1515
F10.492000000000001
ssS'220.150068'
p1544
(dp1545
g1504
F0.028000000000000001
sg1505
F0.024972454380332295
sg1506
g11
(g13
S'\x00\xe4\xc7\x98\xbb\x96\xa0?'
tRp1546
sg1508
F-12.590400000000001
sg1509
F1.080766237545256
sg1510
g11
(g13
S'\xc9\x98\xbb\x96\x90O%@'
tRp1547
sg1512
F220.150068
sg1513
F0.00080000000000000004
sg1514
F-0.17136299999999999
sg1515
F10.622999999999999
ssS'220.038025'
p1548
(dp1549
g1504
F0.043999999999999997
sg1505
F0.036289076562758905
sg1506
g11
(g13
S'\x00\xba@\x82\xe2\xc7\x98?'
tRp1550
sg1508
F-8.2246000000000006
sg1509
F0.14084936497096659
sg1510
g11
(g13
S'\xb5Y\xf5\xb9\xda\n.@'
tRp1551
sg1512
F220.038025
sg1513
F0.010999999999999999
sg1514
F-0.207151
sg1515
F14.997
ssS'220.0304'
p1552
(dp1553
g1504
F0.028000000000000001
sg1505
F0.027139953533080664
sg1506
g11
(g13
S'\x00j\xe7\xfb\xa9\xf1\x92?'
tRp1554
sg1508
F-9.4313000000000002
sg1509
F0.24842859031648942
sg1510
g11
(g13
S'\x1c/\xdd$\x06\xa1+@'
tRp1555
sg1512
F220.03039999999999
sg1513
F0.0044999999999999997
sg1514
F-0.14829800000000001
sg1515
F13.833
ssS'220.057719'
p1556
(dp1557
g1504
F0.047
sg1505
F0.035941389480343935
sg1506
g11
(g13
S'\x00ZK\xc8\x07=\x9b?'
tRp1558
sg1508
F-8.2423999999999999
sg1509
F0.33343795009123689
sg1510
g11
(g13
S'\xe2\x9c\x11\xa5\xbd\x01.@'
tRp1559
sg1512
F220.05771899999999
sg1513
F0.010800000000000001
sg1514
F-0.17868500000000001
sg1515
F15.029999999999999
sssS'faintest_s2n'
p1560
F9.0425580902736211
sS'HJD_mid'
p1561
g11
(g13
S'\xce\xc51\xf0\x03\xbaBA'
tRp1562
sS'2mass_abs_avg_dev'
p1563
S'0.033675'
p1564
sS'targ_s2n'
p1565
F59.199076559533196
sS'sex_faintest'
p1566
(g11
(g13
S'\xfee\xf7\xe4a\xc11@'
tRp1567
g11
(g13
S'\x13)\xfft\x1a\xed\xbe?'
tRp1568
tp1569
sS'N_dither'
p1570
I6
sS'HJD_start'
p1571
g11
(g13
S';H&\xf0\x03\xbaBA'
tRp1572
sS'STOP_CPU'
p1573
S'2008-03-10 09:10:50.099651'
p1574
sS'STRT_CPU'
p1575
S'2008-03-10 09:09:49.503893'
p1576
sS't_mid'
p1577
(F1941.5000000000002
F30.499999999999996
tp1578
sS'FileName'
p1579
g1498
sS'filter'
p1580
S'j'
sS'targ_mag'
p1581
(g11
(g13
S'\x88\xa7W\xca2D/@'
tRp1582
F0.050486666336546498
tp1583
sS'Aperture'
p1584
I6
sS'HJD_stop'
p1585
g11
(g13
S'bC=\xf0\x03\xbaBA'
tRp1586
sS'targ_flux'
p1587
(F1109.309
F18.738620000000001
tp1588
sS'zp'
p1589
(g11
(g13
S'X[\xb1\xbf\xec>7@'
tRp1590
g11
(g13
S'|R\xc6-\x9d\xb2\x8a?'
tRp1591
tp1592
sS'EXPTIME'
p1593
S'46.8'
p1594
ssS'j_long_GRB.108590.1_coadd_3-4.fits'
p1595
(dp1596
S'calib_stars'
p1597
(dp1598
S'220.049441'
p1599
(dp1600
S'2mass_e_mag'
p1601
F0.041000000000000002
sS'new_e_mag'
p1602
F0.038572802306518744
sS'delta_mag'
p1603
g11
(g13
S'\x00\x00V\x0e-\xb2}?'
tRp1604
sS'inst_mag'
p1605
F-8.1923999999999992
sS'delta_pos'
p1606
F0.24899833785094685
sS'new_mag'
p1607
g11
(g13
S'\xe2z\x14\xaeG\x11.@'
tRp1608
sS'ra'
p1609
F220.049441
sS'inst_e_mag'
p1610
F0.0123
sS'dec'
p1611
F-0.114549
sS'2mass_mag'
p1612
F15.041
ssS'220.041783'
p1613
(dp1614
g1601
F0.025999999999999999
sg1602
F0.025287757468343799
sg1603
g11
(g13
S'\x00@\xa3\x01\xbc\x05B?'
tRp1615
sg1605
F-10.514699999999999
sg1606
F0.22246897053518655
sg1607
g11
(g13
S'yz\xa5,Cl)@'
tRp1616
sg1609
F220.04178300000001
sg1610
F0.002
sg1611
F-0.200956
sg1612
F12.712
ssS'220.048875'
p1617
(dp1618
g1601
F0.057000000000000002
sg1602
F0.041009758323815773
sg1603
g11
(g13
S'\x00\xaf%\xe4\x83\x9e\xc1?'
tRp1619
sg1605
F-7.8487999999999998
sg1606
F0.63180680454147065
sg1607
g11
(g13
S'\x8cJ\xea\x044\xc1.@'
tRp1620
sg1609
F220.04887500000001
sg1610
F0.013599999999999999
sg1611
F-0.118968
sg1612
F15.515000000000001
ssS'220.12869'
p1621
(dp1622
g1601
F0.033000000000000002
sg1602
F0.033385821508205807
sg1603
g11
(g13
S'\x00\x80\xa3\x01\xbc\x05B?'
tRp1623
sg1605
F-8.2995999999999999
sg1606
F0.46997719712125413
sg1607
g11
(g13
S'\xb57\xf8\xc2d\xda-@'
tRp1624
sg1609
F220.12869000000001
sg1610
F0.0092999999999999992
sg1611
F-0.110815
sg1612
F14.926
ssS'220.108846'
p1625
(dp1626
g1601
F0.023
sg1602
F0.025850931855114577
sg1603
g11
(g13
S'\x00\xcb2\xc4\xb1.\xae?'
tRp1627
sg1605
F-9.8452000000000002
sg1606
F0.5757293427181821
sg1607
g11
(g13
S'\x89\xd2\xde\xe0\x0b\xc3*@'
tRp1628
sg1609
F220.108846
sg1610
F0.0030000000000000001
sg1611
F-0.143456
sg1612
F13.321999999999999
ssS'220.068892'
p1629
(dp1630
g1601
F0.024
sg1602
F0.025023290706415447
sg1603
g11
(g13
S'\x00{\x83/L\xa6\xaa?'
tRp1631
sg1605
F-11.5731
sg1606
F0.23889093144349741
sg1607
g11
(g13
S"<N\xd1\x91\\N'@"
tRp1632
sg1609
F220.06889200000001
sg1610
F0.0012999999999999999
sg1611
F-0.13592099999999999
sg1612
F11.601000000000001
ssS'220.142816'
p1633
(dp1634
g1601
F0.024
sg1602
F0.025023290706415447
sg1603
g11
(g13
S'\x00\xc2\x86\xa7W\xca\x92?'
tRp1635
sg1605
F-11.6175
sg1606
F0.77888552668400124
sg1607
g11
(g13
S"\xbak\t\xf9\xa07'@"
tRp1636
sg1609
F220.14281600000001
sg1610
F0.0012999999999999999
sg1611
F-0.139483
sg1612
F11.627000000000001
ssS'220.04723'
p1637
(dp1638
g1601
F0.024
sg1602
F0.024921803260955611
sg1603
g11
(g13
S'\x00\x06\x81\x95C\x8b\xb4?'
tRp1639
sg1605
F-12.6539
sg1606
F0.20397122354279321
sg1607
g11
(g13
S'\xa2E\xb6\xf3\xfd$%@'
tRp1640
sg1609
F220.04723000000001
sg1610
F0.00089999999999999998
sg1611
F-0.177985
sg1612
F10.492000000000001
ssS'220.150068'
p1641
(dp1642
g1601
F0.028000000000000001
sg1602
F0.024902150063353518
sg1603
g11
(g13
S'\x00b2U0*\xa9?'
tRp1643
sg1605
F-12.554
sg1606
F0.69515363886684722
sg1607
g11
(g13
S'G\x03x\x0b$X%@'
tRp1644
sg1609
F220.150068
sg1610
F0.00080000000000000004
sg1611
F-0.17136299999999999
sg1612
F10.622999999999999
ssS'220.038025'
p1645
(dp1646
g1601
F0.043999999999999997
sg1602
F0.034199723358205369
sg1603
g11
(g13
S'\x00d\xf7\xe4a\xa1\x86?'
tRp1647
sg1605
F-8.2401999999999997
sg1606
F0.21140814715098286
sg1607
g11
(g13
S'\x7f\xfb:p\xce\xf8-@'
tRp1648
sg1609
F220.038025
sg1610
F0.0097999999999999997
sg1611
F-0.207151
sg1612
F14.997
ssS'220.057719'
p1649
(dp1650
g1601
F0.047
sg1602
F0.035205571686563727
sg1603
g11
(g13
S'\x00\n\xac\x1cZd\x9b?'
tRp1651
sg1605
F-8.1693999999999996
sg1606
F0.15926391633919496
sg1607
g11
(g13
S'\x94\x18\x04V\x0e\x1d.@'
tRp1652
sg1609
F220.05771899999999
sg1610
F0.0104
sg1611
F-0.17868500000000001
sg1612
F15.029999999999999
ssS'220.0304'
p1653
(dp1654
g1601
F0.028000000000000001
sg1602
F0.028347364564942853
sg1603
g11
(g13
S'\x00\x90\xa9\x82QI}?'
tRp1655
sg1605
F-9.4002999999999997
sg1606
F0.20895858393245245
sg1607
g11
(g13
S'\x9f\xcd\xaa\xcf\xd5\xa6+@'
tRp1656
sg1609
F220.03039999999999
sg1610
F0.0057000000000000002
sg1611
F-0.14829800000000001
sg1612
F13.833
sssS'faintest_s2n'
p1657
F7.2564267193324161
sS'HJD_mid'
p1658
g11
(g13
S'R.\xdf\xef\x03\xbaBA'
tRp1659
sS'STOP_CPU'
p1660
S'2008-03-10 09:07:12.859204'
p1661
sS'targ_s2n'
p1662
F62.876129604718422
sS'sex_faintest'
p1663
(g11
(g13
S'@5^\xbaI\x142@'
tRp1664
g11
(g13
S'%z\x9e\x0e\x8d;\xc3?'
tRp1665
tp1666
sS'N_dither'
p1667
I6
sS'HJD_start'
p1668
g11
(g13
S'\xd3|\xd3\xef\x03\xbaBA'
tRp1669
sS'2mass_abs_avg_dev'
p1670
S'0.037475'
p1671
sS'STRT_CPU'
p1672
S'2008-03-10 09:06:11.193953'
p1673
sS't_mid'
p1674
(F1723.5
F30.499999999999996
tp1675
sS'FileName'
p1676
g1595
sS'filter'
p1677
S'j'
sS'targ_mag'
p1678
(g11
(g13
S'\x17\xd9\xce\xf7SS/@'
tRp1679
F0.048377071818969962
tp1680
sS'Aperture'
p1681
I6
sS'HJD_stop'
p1682
g11
(g13
S'\xd1\xdf\xea\xef\x03\xbaBA'
tRp1683
sS'targ_flux'
p1684
(F1060.0840000000001
F16.85988
tp1685
sS'zp'
p1686
(g11
(g13
S'\x8b\xfde\xf7\xe497@'
tRp1687
g11
(g13
S'\xe5\xa31B\xbck\x8a?'
tRp1688
tp1689
sS'EXPTIME'
p1690
S'46.8'
p1691
ssS'k_long_GRB.108590.1_coadd_21-22.fits'
p1692
(dp1693
S'calib_stars'
p1694
(dp1695
S'220.049441'
p1696
(dp1697
S'2mass_e_mag'
p1698
F0.089999999999999997
sS'new_e_mag'
p1699
F0.097268098572964826
sS'delta_mag'
p1700
g11
(g13
S'\x00\xb8\x8d\x06\xf0\x16\xb8?'
tRp1701
sS'inst_mag'
p1702
F-7.7084000000000001
sS'delta_pos'
p1703
F2.5387329404319248
sS'new_mag'
p1704
g11
(g13
S'j\x9aw\x9c\xa2\x03-@'
tRp1705
sS'ra'
p1706
F220.049441
sS'inst_e_mag'
p1707
F0.038100000000000002
sS'dec'
p1708
F-0.114549
sS'2mass_mag'
p1709
F14.413
ssS'220.041783'
p1710
(dp1711
g1698
F0.027
sg1699
F0.034877634667505764
sg1700
g11
(g13
S'\x00,\xa9\x13\xd0D\x98?'
tRp1712
sg1702
F-10.1722
sg1703
F2.0446180407198686
sg1704
g11
(g13
S'f\xd5\xe7j+\x16(@'
tRp1713
sg1706
F220.04178300000001
sg1707
F0.0044999999999999997
sg1708
F-0.200956
sg1709
F12.067
ssS'220.048875'
p1714
(dp1715
g1698
F0.104
sg1699
F0.092994321332003915
sg1700
g11
(g13
S'\x80\xc6\xdc\xb5\x84|\xc8?'
tRp1716
sg1702
F-7.7637999999999998
sg1703
F2.2980080109034926
sg1704
g11
(g13
S'\xd64\xef8E\xe7,@'
tRp1717
sg1706
F220.04887500000001
sg1707
F0.036200000000000003
sg1708
F-0.118968
sg1709
F14.643000000000001
ssS'220.12869'
p1718
(dp1719
g1698
F0.087999999999999995
sg1699
F0.10292892207732478
sg1700
g11
(g13
S'\x00r\x1b\r\xe0-\x90?'
tRp1720
sg1702
F-7.7042999999999999
sg1703
F1.076189399241124
sg1704
g11
(g13
S'.n\xa3\x01\xbc\x05-@'
tRp1721
sg1706
F220.12869000000001
sg1707
F0.040599999999999997
sg1708
F-0.110815
sg1709
F14.526999999999999
ssS'220.108846'
p1722
(dp1723
g1698
F0.029000000000000001
sg1699
F0.037848474209669268
sg1700
g11
(g13
S'\x00\x80Z\xd3\xbc\xe3t?'
tRp1724
sg1702
F-9.5394000000000005
sg1703
F0.66603249328123548
sg1704
g11
(g13
S'\xb4\xa6y\xc7)Z)@'
tRp1725
sg1706
F220.108846
sg1707
F0.0076
sg1708
F-0.143456
sg1709
F12.670999999999999
ssS'220.068892'
p1726
(dp1727
g1698
F0.021000000000000001
sg1699
F0.033659872251688656
sg1700
g11
(g13
S'\x00h\x8a\x8e\xe4\xf2\x7f?'
tRp1728
sg1702
F-10.980700000000001
sg1703
F1.5549637451094143
sg1704
g11
(g13
S'\x9b3\xa2\xb47x&@'
tRp1729
sg1706
F220.06889200000001
sg1707
F0.0023999999999999998
sg1708
F-0.13592099999999999
sg1709
F11.227
ssS'220.142816'
p1730
(dp1731
g1698
F0.021000000000000001
sg1699
F0.033544164917314601
sg1700
g11
(g13
S'\x00\xf4\xd2Mb\x10\x98?'
tRp1732
sg1702
F-11.172000000000001
sg1703
F0.13662768697090927
sg1704
g11
(g13
S'\x82\xc0\xca\xa1E\x16&@'
tRp1733
sg1706
F220.14281600000001
sg1707
F0.0020999999999999999
sg1708
F-0.139483
sg1709
F11.067
ssS'220.04723'
p1734
(dp1735
g1698
F0.024
sg1699
F0.033233642593011072
sg1700
g11
(g13
S'\x00\x88Z\xd3\xbc\xe3t?'
tRp1736
sg1702
F-12.406599999999999
sg1703
F1.7832569018604891
sg1704
g11
(g13
S'\x03x\x0b$(\x9e#@'
tRp1737
sg1706
F220.04723000000001
sg1707
F0.00089999999999999998
sg1708
F-0.177985
sg1709
F9.8140000000000001
ssS'220.150068'
p1738
(dp1739
g1698
F0.023
sg1699
F0.033288193102059473
sg1700
g11
(g13
S'\x80\xfa\xcb\xee\xc9\xc3\xb2?'
tRp1740
sg1702
F-12.0342
sg1703
F1.2488706730724839
sg1704
g11
(g13
S'\x93\x87\x85Z\xd3\\$@'
tRp1741
sg1706
F220.150068
sg1707
F0.0011999999999999999
sg1708
F-0.17136299999999999
sg1709
F10.108000000000001
ssS'220.038025'
p1742
(dp1743
g1698
F0.10199999999999999
sg1699
F0.094790555436710042
sg1700
g11
(g13
S"\x80\xbb'\x0f\x0b\xb5\xc6?"
tRp1744
sg1702
F-7.7449000000000003
sg1703
F2.2599776949398289
sg1704
g11
(g13
S'\xc4\xfe\xb2{\xf2\xf0,@'
tRp1745
sg1706
F220.038025
sg1707
F0.036999999999999998
sg1708
F-0.207151
sg1709
F14.648
ssS'220.057719'
p1746
(dp1747
g1698
F0.072999999999999995
sg1699
F0.080143440155760706
sg1700
g11
(g13
S'\xc0\xcc;N\xd1\x91\xc4?'
tRp1748
sg1702
F-7.9568000000000003
sg1703
F1.8449372338681365
sg1704
g11
(g13
S'L\xf3\x8eSt\x84,@'
tRp1749
sg1706
F220.05771899999999
sg1707
F0.0304
sg1708
F-0.17868500000000001
sg1709
F14.098000000000001
ssS'220.0304'
p1750
(dp1751
g1698
F0.037999999999999999
sg1699
F0.052392012750036611
sg1700
g11
(g13
S'\x00V[\xb1\xbf\xec\x9e?'
tRp1752
sg1702
F-8.8552999999999997
sg1703
F2.6258024674502107
sg1704
g11
(g13
S'\xd4\th"l\xb8*@'
tRp1753
sg1706
F220.03039999999999
sg1707
F0.016899999999999998
sg1708
F-0.14829800000000001
sg1709
F13.33
sssS'faintest_s2n'
p1754
F13.299662786597464
sS'HJD_mid'
p1755
g11
(g13
S'\x8f\xc9\xd6\xf0\x03\xbaBA'
tRp1756
sS'STOP_CPU'
p1757
S'2008-03-10 09:18:05.239693'
p1758
sS'targ_s2n'
p1759
F29.853299302838582
sS'sex_faintest'
p1760
(g11
(g13
S'\xf0\xf4JY\x86\xb8/@'
tRp1761
g11
(g13
S'\x9c\x7f`\xab\x1f\x15\xc1?'
tRp1762
tp1763
sS'N_dither'
p1764
I6
sS'HJD_start'
p1765
g11
(g13
S'\x99H\xcb\xf0\x03\xbaBA'
tRp1766
sS'2mass_abs_avg_dev'
p1767
S'0.0673333333333'
p1768
sS'STRT_CPU'
p1769
S'2008-03-10 09:17:04.574299'
p1770
sS't_mid'
p1771
(F2376.5
F30.499999999999996
tp1772
sS'FileName'
p1773
g1692
sS'filter'
p1774
S'k'
sS'targ_mag'
p1775
(g11
(g13
S'\x0b\x93\xa9\x82Q\xe9,@'
tRp1776
F0.093442918404767303
tp1777
sS'Aperture'
p1778
I6
sS'HJD_stop'
p1779
g11
(g13
S'\x85J\xe2\xf0\x03\xbaBA'
tRp1780
sS'targ_flux'
p1781
(F1270.377
F42.553989999999999
tp1782
sS'zp'
p1783
(g11
(g13
S'\xbaI\x0c\x02+76@'
tRp1784
g11
(g13
S'\xb3;r*h\x1a\x9a?'
tRp1785
tp1786
sS'EXPTIME'
p1787
S'46.8'
p1788
ssS'h_long_GRB.108590.1_coadd_3-4.fits'
p1789
(dp1790
S'calib_stars'
p1791
(dp1792
S'220.049441'
p1793
(dp1794
S'2mass_e_mag'
p1795
F0.058999999999999997
sS'new_e_mag'
p1796
F0.04801740194196473
sS'delta_mag'
p1797
g11
(g13
S'\x00\xb0\x0cq\xac\x8b\x9b?'
tRp1798
sS'inst_mag'
p1799
F-8.1081000000000003
sS'delta_pos'
p1800
F0.16924266071697996
sS'new_mag'
p1801
g11
(g13
S'\xb0\xbf\xec\x9e<L-@'
tRp1802
sS'ra'
p1803
F220.049441
sS'inst_e_mag'
p1804
F0.016500000000000001
sS'dec'
p1805
F-0.114549
sS'2mass_mag'
p1806
F14.622
ssS'220.041783'
p1807
(dp1808
g1795
F0.025999999999999999
sg1796
F0.027864825304605774
sg1797
g11
(g13
S'\x00\xa7\x9b\xc4 \xb0\xa2?'
tRp1809
sg1799
F-10.5945
sg1800
F0.75745011801478812
sg1801
g11
(g13
S'23333S(@'
tRp1810
sg1803
F220.04178300000001
sg1804
F0.0025999999999999999
sg1805
F-0.200956
sg1806
F12.199
ssS'220.048875'
p1811
(dp1812
g1795
F0.066000000000000003
sg1796
F0.047819666344049265
sg1797
g11
(g13
S'\xc0\x83/L\xa6\n\xce?'
tRp1813
sg1799
F-8.1106999999999996
sg1800
F0.19581897437617987
sg1801
g11
(g13
S'A\xcff\xd5\xe7J-@'
tRp1814
sg1803
F220.04887500000001
sg1804
F0.016400000000000001
sg1805
F-0.118968
sg1806
F14.881
ssS'220.12869'
p1815
(dp1816
g1795
F0.068000000000000005
sg1796
F0.046446671455080593
sg1797
g11
(g13
S'\x00\xc0\x06_\x98LU?'
tRp1817
sg1799
F-8.1567000000000007
sg1800
F1.3115964085780518
sg1801
g11
(g13
S'\xdc\x93\x87\x85Z3-@'
tRp1818
sg1803
F220.12869000000001
sg1804
F0.015699999999999999
sg1805
F-0.110815
sg1806
F14.599
ssS'220.108846'
p1819
(dp1820
g1795
F0.029000000000000001
sg1796
F0.028356595163316033
sg1797
g11
(g13
S'\x00X\x9f\xab\xad\xd8\x9f?'
tRp1821
sg1799
F-10.0121
sg1800
F1.305557517914576
sg1801
g11
(g13
S'\xae\x94e\x88c})@'
tRp1822
sg1803
F220.108846
sg1804
F0.0033999999999999998
sg1805
F-0.143456
sg1806
F12.776
ssS'220.068892'
p1823
(dp1824
g1795
F0.027
sg1796
F0.027335787701403415
sg1797
g11
(g13
S'\x00O\xfc\x18s\xd7\xa2?'
tRp1825
sg1799
F-11.456200000000001
sg1800
F0.21859219869446203
sg1801
g11
(g13
S'\tF%u\x02\x9a&@'
tRp1826
sg1803
F220.06889200000001
sg1804
F0.0012999999999999999
sg1805
F-0.13592099999999999
sg1806
F11.263999999999999
ssS'220.142816'
p1827
(dp1828
g1795
F0.024
sg1796
F0.0273094359014645
sg1797
g11
(g13
S'\x00\x00\x00\x00\x00\x00\xe0<'
tRp1829
sg1799
F-11.670999999999999
sg1800
F1.9278852919573115
sg1801
g11
(g13
S'x\xe9&1\x08,&@'
tRp1830
sg1803
F220.14281600000001
sg1804
F0.0011999999999999999
sg1805
F-0.139483
sg1806
F11.086
ssS'220.150068'
p1831
(dp1832
g1795
F0.021000000000000001
sg1796
F0.027242916313350123
sg1797
g11
(g13
S'\x00;N\xd1\x91\\\xae?'
tRp1833
sg1799
F-12.5237
sg1800
F2.2606004435621743
sg1801
g11
(g13
S'GP\xfc\x18sw$@'
tRp1834
sg1803
F220.150068
sg1804
F0.00089999999999999998
sg1805
F-0.17136299999999999
sg1806
F10.173999999999999
ssS'220.038025'
p1835
(dp1836
g1795
F0.056000000000000001
sg1796
F0.050418858468396506
sg1797
g11
(g13
S'\x80\x1e\x16jM\xf3\xbe?'
tRp1837
sg1799
F-8.2898999999999994
sg1800
F0.68761807914739603
sg1801
g11
(g13
S"V\xec/\xbb'\xef,@"
tRp1838
sg1803
F220.038025
sg1804
F0.0177
sg1805
F-0.207151
sg1806
F14.587999999999999
ssS'220.0304'
p1839
(dp1840
g1795
F0.035000000000000003
sg1796
F0.031933538627220724
sg1797
g11
(g13
S'\x80\xef8EGr\xc1?'
tRp1841
sg1799
F-9.5173000000000005
sg1800
F0.49696174312261787
sg1801
g11
(g13
S'\xcf\xb3Y\xf5\xb9z*@'
tRp1842
sg1803
F220.03039999999999
sg1804
F0.0070000000000000001
sg1805
F-0.14829800000000001
sg1806
F13.375999999999999
ssS'220.057719'
p1843
(dp1844
g1795
F0.045999999999999999
sg1796
F0.040288565241966584
sg1797
g11
(g13
S'\x00\x13\xaeG\xe1z\xa4?'
tRp1845
sg1799
F-8.4290000000000003
sg1800
F0.78737188665736013
sg1801
g11
(g13
S'\r-\xb2\x9d\xef\xa7,@'
tRp1846
sg1803
F220.05771899999999
sg1804
F0.0124
sg1805
F-0.17868500000000001
sg1806
F14.288
sssS'faintest_s2n'
p1847
F11.189678069223074
sS'HJD_mid'
p1848
g11
(g13
S'R.\xdf\xef\x03\xbaBA'
tRp1849
sS'2mass_abs_avg_dev'
p1850
S'0.0658'
p1851
sS'targ_s2n'
p1852
F54.922457089243338
sS'sex_faintest'
p1853
(g11
(g13
S'\x00\xde\x02\t\x8a\xff0@'
tRp1854
g11
(g13
S'\x88\x0c\xa5\x17\xf7\xa4\xc1?'
tRp1855
tp1856
sS'N_dither'
p1857
I6
sS'HJD_start'
p1858
g11
(g13
S'\xd3|\xd3\xef\x03\xbaBA'
tRp1859
sS'STOP_CPU'
p1860
S'2008-03-10 09:07:12.859204'
p1861
sS'STRT_CPU'
p1862
S'2008-03-10 09:06:11.193953'
p1863
sS't_mid'
p1864
(F1723.5
F30.499999999999996
tp1865
sS'FileName'
p1866
g1789
sS'filter'
p1867
S'h'
sS'targ_mag'
p1868
(g11
(g13
S'\x9c\x11\xa5\xbd\xc1\xb7-@'
tRp1869
F0.05473263459085629
tp1870
sS'Aperture'
p1871
I6
sS'HJD_stop'
p1872
g11
(g13
S'\xd1\xdf\xea\xef\x03\xbaBA'
tRp1873
sS'targ_flux'
p1874
(F1442.953
F26.272549999999999
tp1875
sS'zp'
p1876
(g11
(g13
S'n\x12\x83\xc0\xca\xc16@'
tRp1877
g11
(g13
S'Z23\xb3\xf3\\\x91?'
tRp1878
tp1879
sS'EXPTIME'
p1880
S'46.8'
p1881
ssS'j_long_GRB.108590.1_coadd_7-8.fits'
p1882
(dp1883
S'calib_stars'
p1884
(dp1885
S'220.049441'
p1886
(dp1887
S'2mass_e_mag'
p1888
F0.041000000000000002
sS'new_e_mag'
p1889
F0.034866962554512514
sS'delta_mag'
p1890
g11
(g13
S'\x80z\x14\xaeG\xe1\xba?'
tRp1891
sS'inst_mag'
p1892
F-8.2736000000000001
sS'delta_pos'
p1893
F0.23092833220744713
sS'new_mag'
p1894
g11
(g13
S'\xad\x1cZd;\xdf-@'
tRp1895
sS'ra'
p1896
F220.049441
sS'inst_e_mag'
p1897
F0.010200000000000001
sS'dec'
p1898
F-0.114549
sS'2mass_mag'
p1899
F15.041
ssS'220.041783'
p1900
(dp1901
g1888
F0.025999999999999999
sg1889
F0.025383322827750066
sg1890
g11
(g13
S'\x00\x80\x1c\xeb\xe26J?'
tRp1902
sg1892
F-10.4968
sg1893
F0.13589974029001498
sg1894
g11
(g13
S'x-!\x1f\xf4l)@'
tRp1903
sg1896
F220.04178300000001
sg1897
F0.0022000000000000001
sg1898
F-0.200956
sg1899
F12.712
ssS'220.048875'
p1904
(dp1905
g1888
F0.057000000000000002
sg1889
F0.042359143968897402
sg1890
g11
(g13
S'\x00\xbe0\x99*\x18\xc5?'
tRp1906
sg1892
F-7.8593999999999999
sg1893
F0.52338561270801365
sg1894
g11
(g13
S'P\x1e\x16jM\xb3.@'
tRp1907
sg1896
F220.04887500000001
sg1897
F0.0143
sg1898
F-0.118968
sg1899
F15.515000000000001
ssS'220.12869'
p1908
(dp1909
g1888
F0.033000000000000002
sg1889
F0.034866962554512514
sg1890
g11
(g13
S'\x00\x80\xf2\xb0Pk\x8a?'
tRp1910
sg1892
F-8.2706999999999997
sg1893
F0.50832303419488378
sg1894
g11
(g13
S'\xc7m4\x80\xb7\xe0-@'
tRp1911
sg1896
F220.12869000000001
sg1897
F0.010200000000000001
sg1898
F-0.110815
sg1899
F14.926
ssS'220.108846'
p1912
(dp1913
g1888
F0.023
sg1889
F0.026060719057189839
sg1890
g11
(g13
S'\x00\xab\x13\xd0D\xd8\xa0?'
tRp1914
sg1892
F-9.8546999999999993
sg1893
F0.57453026459826073
sg1894
g11
(g13
S'i\xb3\xeas\xb5\xb5*@'
tRp1915
sg1896
F220.108846
sg1897
F0.0033
sg1898
F-0.143456
sg1899
F13.321999999999999
ssS'220.068892'
p1916
(dp1917
g1888
F0.024
sg1889
F0.024994580968237447
sg1890
g11
(g13
S'\x00\xf0ZB>\xe8\x99?'
tRp1918
sg1892
F-11.583299999999999
sg1893
F0.21107273817066846
sg1894
g11
(g13
S"9\xf8\xc2d\xaa@'@"
tRp1919
sg1896
F220.06889200000001
sg1897
F0.0011999999999999999
sg1898
F-0.13592099999999999
sg1899
F11.601000000000001
ssS'220.142816'
p1920
(dp1921
g1888
F0.024
sg1889
F0.024994580968237447
sg1890
g11
(g13
S'\x00\xdeq\x8a\x8e\xe4\xa2?'
tRp1922
sg1892
F-11.6195
sg1893
F0.78490843315071812
sg1894
g11
(g13
S"=\xbdR\x96!.'@"
tRp1923
sg1896
F220.14281600000001
sg1897
F0.0011999999999999999
sg1898
F-0.139483
sg1899
F11.627000000000001
ssS'220.04723'
p1924
(dp1925
g1888
F0.024
sg1889
F0.024884876487091066
sg1890
g11
(g13
S'\x00\xda=yX\xa8\xa5?'
tRp1926
sg1892
F-12.6753
sg1893
F0.22009960044754759
sg1894
g11
(g13
S'p\x81\x04\xc5\x8f\x11%@'
tRp1927
sg1896
F220.04723000000001
sg1897
F0.00069999999999999999
sg1898
F-0.177985
sg1899
F10.492000000000001
ssS'220.150068'
p1928
(dp1929
g1888
F0.028000000000000001
sg1889
F0.024902230377574167
sg1890
g11
(g13
S'\x00\x00\x1c\xeb\xe26J?'
tRp1930
sg1892
F-12.587400000000001
sg1893
F0.64322433917448629
sg1894
g11
(g13
S'u$\x97\xff\x90>%@'
tRp1931
sg1896
F220.150068
sg1897
F0.00080000000000000004
sg1898
F-0.17136299999999999
sg1899
F10.622999999999999
ssS'220.038025'
p1932
(dp1933
g1888
F0.043999999999999997
sg1889
F0.035892632639272615
sg1890
g11
(g13
S'\x00\xfc~j\xbct\x93?'
tRp1934
sg1892
F-8.1936
sg1893
F0.23670596806514199
sg1894
g11
(g13
S'\xd6x\xe9&1\x08.@'
tRp1935
sg1896
F220.038025
sg1897
F0.010800000000000001
sg1898
F-0.207151
sg1899
F14.997
ssS'220.057719'
p1936
(dp1937
g1888
F0.047
sg1889
F0.035205628495707582
sg1890
g11
(g13
S'\x00\x8f\x0fz6\xab\xae?'
tRp1938
sg1892
F-8.2394999999999996
sg1893
F0.19610821969539527
sg1894
g11
(g13
S'\x00\xb3{\xf2\xb0\xf0-@'
tRp1939
sg1896
F220.05771899999999
sg1897
F0.0104
sg1898
F-0.17868500000000001
sg1899
F15.029999999999999
ssS'220.0304'
p1940
(dp1941
g1888
F0.028000000000000001
sg1889
F0.027075351849565645
sg1890
g11
(g13
S'\x00\x80\xe2\xc7\x98\xbb\x96?'
tRp1942
sg1892
F-9.3987999999999996
sg1893
F0.17985069645200621
sg1894
g11
(g13
S'\x911w-!\x9f+@'
tRp1943
sg1896
F220.03039999999999
sg1897
F0.0044999999999999997
sg1898
F-0.14829800000000001
sg1899
F13.833
sssS'faintest_s2n'
p1944
F8.7084731322491162
sS'HJD_mid'
p1945
g11
(g13
S'\x08R\x16\xf0\x03\xbaBA'
tRp1946
sS'STOP_CPU'
p1947
S'2008-03-10 09:09:37.799289'
p1948
sS'targ_s2n'
p1949
F57.245010693181705
sS'sex_faintest'
p1950
(g11
(g13
S'\xaa\x13\xd0D\xd8\xd01@'
tRp1951
g11
(g13
S'\xa7\xac\x0f\x93\xfa\x0b\xc0?'
tRp1952
tp1953
sS'N_dither'
p1954
I6
sS'HJD_start'
p1955
g11
(g13
S'8\xcc\n\xf0\x03\xbaBA'
tRp1956
sS'2mass_abs_avg_dev'
p1957
S'0.0435666666667'
p1958
sS'STRT_CPU'
p1959
S'2008-03-10 09:08:37.033900'
p1960
sS't_mid'
p1961
(F1868.9999999999995
F30
tp1962
sS'FileName'
p1963
g1882
sS'filter'
p1964
S'j'
sS'targ_mag'
p1965
(g11
(g13
S'RI\x9d\x80&b/@'
tRp1966
F0.051921042726218218
tp1967
sS'Aperture'
p1968
I6
sS'HJD_stop'
p1969
g11
(g13
S'\xd8\xd7!\xf0\x03\xbaBA'
tRp1970
sS'targ_flux'
p1971
(F1016.6130000000001
F17.758980000000001
tp1972
sS'zp'
p1973
(g11
(g13
S'\xda=yX\xa857@'
tRp1974
g11
(g13
S'W\x14\xec\x10\xd1k\x8a?'
tRp1975
tp1976
sS'EXPTIME'
p1977
S'46.8'
p1978
ssS'k_long_GRB.108590.1_coadd_19-20.fits'
p1979
(dp1980
S'calib_stars'
p1981
(dp1982
S'220.049441'
p1983
(dp1984
S'2mass_e_mag'
p1985
F0.089999999999999997
sS'new_e_mag'
p1986
F0.1041211963876236
sS'delta_mag'
p1987
g11
(g13
S'\x00\xf7u\xe0\x9c\x11\xcd?'
tRp1988
sS'inst_mag'
p1989
F-7.6138000000000003
sS'delta_pos'
p1990
F2.3431405203177249
sS'new_mag'
p1991
g11
(g13
S'\xd6V\xec/\xbbG-@'
tRp1992
sS'ra'
p1993
F220.049441
sS'inst_e_mag'
p1994
F0.041000000000000002
sS'dec'
p1995
F-0.114549
sS'2mass_mag'
p1996
F14.413
ssS'220.041783'
p1997
(dp1998
g1985
F0.027
sg1986
F0.035639544570463894
sg1987
g11
(g13
S'\x00\xf8\x06_\x98L\x85?'
tRp1999
sg1989
F-10.176500000000001
sg1990
F2.3408554272592843
sg1991
g11
(g13
S"\xbak\t\xf9\xa0'(@"
tRp2000
sg1993
F220.04178300000001
sg1994
F0.0044000000000000003
sg1995
F-0.200956
sg1996
F12.067
ssS'220.048875'
p2001
(dp2002
g1985
F0.104
sg1986
F0.07920715837088263
sg1987
g11
(g13
S'@\xb4\xc8v\xbe\x9f\xd6?'
tRp2003
sg1989
F-7.9644000000000004
sg1990
F1.9735480284478115
sg1991
g11
(g13
S'Nb\x10X9\x94,@'
tRp2004
sg1993
F220.04887500000001
sg1994
F0.0298
sg1995
F-0.118968
sg1996
F14.643000000000001
ssS'220.12869'
p2005
(dp2006
g1985
F0.087999999999999995
sg1986
F0.091302474978447762
sg1987
g11
(g13
S'\x00}j\xbct\x93\xa8?'
tRp2007
sg1989
F-7.7748999999999997
sg1990
F1.0800142540849098
sg1991
g11
(g13
S'j\x91\xed|?\xf5,@'
tRp2008
sg1993
F220.12869000000001
sg1994
F0.035299999999999998
sg1995
F-0.110815
sg1996
F14.526999999999999
ssS'220.108846'
p2009
(dp2010
g1985
F0.029000000000000001
sg1986
F0.037959235202913166
sg1987
g11
(g13
S'\x00V\x17\xb7\xd1\x00\x9e?'
tRp2011
sg1989
F-9.6121999999999996
sg1990
F0.64359874433413766
sg1991
g11
(g13
S'\xb9\xaf\x03\xe7\x8cH)@'
tRp2012
sg1993
F220.108846
sg1994
F0.0070000000000000001
sg1995
F-0.143456
sg1996
F12.670999999999999
ssS'220.068892'
p2013
(dp2014
g1985
F0.021000000000000001
sg1986
F0.034483821383223791
sg1987
g11
(g13
S'\x00\x00\x00\x00\x00\x00\xe0<'
tRp2015
sg1989
F-11.026899999999999
sg1990
F1.3762524408855865
sg1991
g11
(g13
S'Ob\x10X9t&@'
tRp2016
sg1993
F220.06889200000001
sg1994
F0.0023
sg1995
F-0.13592099999999999
sg1996
F11.227
ssS'220.142816'
p2017
(dp2018
g1985
F0.021000000000000001
sg1986
F0.0343759150742214
sg1987
g11
(g13
S'\x002\x116<\xbd\x92?'
tRp2019
sg1989
F-11.2052
sg1990
F0.42566657334460906
sg1991
g11
(g13
S'c\xa1\xd64\xef\x18&@'
tRp2020
sg1993
F220.14281600000001
sg1994
F0.002
sg1995
F-0.139483
sg1996
F11.067
ssS'220.04723'
p2021
(dp2022
g1985
F0.024
sg1986
F0.03410761113285541
sg1987
g11
(g13
S'\x00\xdc_vO\x1e\x86?'
tRp2023
sg1989
F-12.4291
sg1990
F1.9380508014884843
sg1991
g11
(g13
S'K{\x83/L\xa6#@'
tRp2024
sg1993
F220.04723000000001
sg1994
F0.00089999999999999998
sg1995
F-0.177985
sg1996
F9.8140000000000001
ssS'220.150068'
p2025
(dp2026
g1985
F0.023
sg1986
F0.034141369878639645
sg1987
g11
(g13
S'\x00Z\x17\xb7\xd1\x00\x9e?'
tRp2027
sg1989
F-12.1166
sg1990
F1.5597861584836969
sg1991
g11
(g13
S'K{\x83/LF$@'
tRp2028
sg1993
F220.150068
sg1994
F0.0011000000000000001
sg1995
F-0.17136299999999999
sg1996
F10.108000000000001
ssS'220.038025'
p2029
(dp2030
g1985
F0.10199999999999999
sg1986
F0.090634781056667654
sg1987
g11
(g13
S'\x80-\x90\xa0\xf81\xc6?'
tRp2031
sg1989
F-7.7793000000000001
sg1990
F2.4460447070746829
sg1991
g11
(g13
S'\xfc\\m\xc5\xfe\xf2,@'
tRp2032
sg1993
F220.038025
sg1994
F0.035000000000000003
sg1995
F-0.207151
sg1996
F14.648
ssS'220.057719'
p2033
(dp2034
g1985
F0.072999999999999995
sg1986
F0.080727340704312089
sg1987
g11
(g13
S'\xc0N@\x13a\xc3\xcb?'
tRp2035
sg1989
F-7.9390000000000001
sg1990
F1.9119503032996139
sg1991
g11
(g13
S'T\x05\xa3\x92:\xa1,@'
tRp2036
sg1993
F220.05771899999999
sg1994
F0.030499999999999999
sg1995
F-0.17868500000000001
sg1996
F14.098000000000001
sssS'faintest_s2n'
p2037
F9.4815705623112994
sS'HJD_mid'
p2038
g11
(g13
S'\xe0R\xbb\xf0\x03\xbaBA'
tRp2039
sS'2mass_abs_avg_dev'
p2040
S'0.101545454545'
p2041
sS'targ_s2n'
p2042
F35.926108600154024
sS'sex_faintest'
p2043
(g11
(g13
S'.!\x1f\xf4l\x96/@'
tRp2044
g11
(g13
S'\x8d\xeb\xf2\x8av\xc4\xbe?'
tRp2045
tp2046
sS'N_dither'
p2047
I6
sS'HJD_start'
p2048
g11
(g13
S'\x8c\xcd\xaf\xf0\x03\xbaBA'
tRp2049
sS'STOP_CPU'
p2050
S'2008-03-10 09:16:52.869537'
p2051
sS'STRT_CPU'
p2052
S'2008-03-10 09:15:52.114165'
p2053
sS't_mid'
p2054
(F2304
F30
tp2055
sS'FileName'
p2056
g1979
sS'filter'
p2057
S'k'
sS'targ_mag'
p2058
(g11
(g13
S'\x08\xce\x19Q\xda\x9b,@'
tRp2059
F0.080075051902512573
tp2060
sS'Aperture'
p2061
I6
sS'HJD_stop'
p2062
g11
(g13
S'3\xd8\xc6\xf0\x03\xbaBA'
tRp2063
sS'targ_flux'
p2064
(F1512.884
F42.110990000000001
tp2065
sS'zp'
p2066
(g11
(g13
S'Tt$\x97\xff@6@'
tRp2067
g11
(g13
S'*q\x93JwB\x9b?'
tRp2068
tp2069
sS'EXPTIME'
p2070
S'46.8'
p2071
ssS'h_long_GRB.108590.1_coadd_15-16.fits'
p2072
(dp2073
S'calib_stars'
p2074
(dp2075
S'220.049441'
p2076
(dp2077
S'2mass_e_mag'
p2078
F0.058999999999999997
sS'new_e_mag'
p2079
F0.051304714316630889
sS'delta_mag'
p2080
g11
(g13
S'\x80\x9e\xab\xad\xd8_\xb6?'
tRp2081
sS'inst_mag'
p2082
F-8.0540000000000003
sS'delta_pos'
p2083
F0.16059298458071641
sS'new_mag'
p2084
g11
(g13
S'\x95\x90\x0fz6k-@'
tRp2085
sS'ra'
p2086
F220.049441
sS'inst_e_mag'
p2087
F0.0183
sS'dec'
p2088
F-0.114549
sS'2mass_mag'
p2089
F14.622
ssS'220.041783'
p2090
(dp2091
g2078
F0.025999999999999999
sg2079
F0.027541984516572346
sg2080
g11
(g13
S'\x00\x00\xf2\xd2Mb@?'
tRp2092
sg2082
F-10.5649
sg2083
F0.81028471806316504
sg2084
g11
(g13
S'\x11\x83\xc0\xca\xa1e(@'
tRp2093
sg2086
F220.04178300000001
sg2087
F0.0030999999999999999
sg2088
F-0.200956
sg2089
F12.199
ssS'220.048875'
p2094
(dp2095
g2078
F0.066000000000000003
sg2079
F0.049063690353571152
sg2080
g11
(g13
S'\x00\x9f\xcd\xaa\xcf\xd5\xce?'
tRp2096
sg2082
F-8.1233000000000004
sg2083
F0.6106309447319066
sg2084
g11
(g13
S'\xd4V\xec/\xbbG-@'
tRp2097
sg2086
F220.04887500000001
sg2087
F0.0172
sg2088
F-0.118968
sg2089
F14.881
ssS'220.12869'
p2098
(dp2099
g2078
F0.068000000000000005
sg2079
F0.047260784072115335
sg2080
g11
(g13
S'\x00\xbe\xb8\x8d\x06\xf0\x96?'
tRp2100
sg2082
F-8.1867999999999999
sg2083
F1.5653211110959577
sg2084
g11
(g13
S"G\xbf}\x1d8'-@"
tRp2101
sg2086
F220.12869000000001
sg2087
F0.016299999999999999
sg2088
F-0.110815
sg2089
F14.599
ssS'220.108846'
p2102
(dp2103
g2078
F0.029000000000000001
sg2079
F0.027965366278865558
sg2080
g11
(g13
S'\x0053333\xa3?'
tRp2104
sg2082
F-10.024900000000001
sg2083
F1.6677138079609841
sg2084
g11
(g13
S'%1\x08\xac\x1cz)@'
tRp2105
sg2086
F220.108846
sg2087
F0.0037000000000000002
sg2088
F-0.143456
sg2089
F12.776
ssS'220.068892'
p2106
(dp2107
g2078
F0.027
sg2079
F0.026761302492799389
sg2080
g11
(g13
S'\x00\x0ez6\xab>\xa7?'
tRp2108
sg2082
F-11.454000000000001
sg2083
F0.67100664503375684
sg2084
g11
(g13
S'\xc8\xc3B\xadi\x9e&@'
tRp2109
sg2086
F220.06889200000001
sg2087
F0.0015
sg2088
F-0.13592099999999999
sg2089
F11.263999999999999
ssS'220.142816'
p2110
(dp2111
g2078
F0.024
sg2079
F0.026700968355307095
sg2080
g11
(g13
S'\x00\xd0\xb8\x8d\x06\xf0f?'
tRp2112
sg2082
F-11.680199999999999
sg2083
F2.3523068870089694
sg2084
g11
(g13
S'\xec\r\xbe0\x99*&@'
tRp2113
sg2086
F220.14281600000001
sg2087
F0.0012999999999999999
sg2088
F-0.139483
sg2089
F11.086
ssS'220.04723'
p2114
(dp2115
g2078
F0.027
sg2079
F0.026571219601499493
sg2080
g11
(g13
S'\x00\xa3\xdf\xbe\x0e\x9c\xa3?'
tRp2116
sg2082
F-12.796099999999999
sg2083
F0.62628775175668261
sg2084
g11
(g13
S'r\xd7\x12\xf2A\xef#@'
tRp2117
sg2086
F220.04723000000001
sg2087
F0.00069999999999999999
sg2088
F-0.177985
sg2089
F9.9290000000000003
ssS'220.150068'
p2118
(dp2119
g2078
F0.021000000000000001
sg2079
F0.026587472822950112
sg2080
g11
(g13
S'\x80\xd6\xa3p=\n\xb7?'
tRp2120
sg2082
F-12.4994
sg2083
F2.5724989456448197
sg2084
g11
(g13
S'\xb9I\x0c\x02+\x87$@'
tRp2121
sg2086
F220.150068
sg2087
F0.00080000000000000004
sg2088
F-0.17136299999999999
sg2089
F10.173999999999999
ssS'220.038025'
p2122
(dp2123
g2078
F0.056000000000000001
sg2079
F0.047658863930134875
sg2080
g11
(g13
S'\x00\x80\xf1\xd2Mb@?'
tRp2124
sg2082
F-8.1748999999999992
sg2083
F0.82911062593170537
sg2084
g11
(g13
S'Yd;\xdfO--@'
tRp2125
sg2086
F220.038025
sg2087
F0.016500000000000001
sg2088
F-0.207151
sg2089
F14.587999999999999
ssS'220.0304'
p2126
(dp2127
g2078
F0.035000000000000003
sg2079
F0.029838728376241352
sg2080
g11
(g13
S'\x00M\x15\x8cJ\xea\xb4?'
tRp2128
sg2082
F-9.4690999999999992
sg2083
F0.24347373102643233
sg2084
g11
(g13
S'\xf3lV}\xae\x96*@'
tRp2129
sg2086
F220.03039999999999
sg2087
F0.0057000000000000002
sg2088
F-0.14829800000000001
sg2089
F13.375999999999999
ssS'220.057719'
p2130
(dp2131
g2078
F0.045999999999999999
sg2079
F0.041868452456606399
sg2080
g11
(g13
S'\x00\x1b|a2U\xb0?'
tRp2132
sg2082
F-8.4116
sg2083
F1.0163533204872985
sg2084
g11
(g13
S'0w-!\x1f\xb4,@'
tRp2133
sg2086
F220.05771899999999
sg2087
F0.0135
sg2088
F-0.17868500000000001
sg2089
F14.288
sssS'faintest_s2n'
p2134
F10.172984158415099
sS'HJD_mid'
p2135
g11
(g13
S'\x94\x10\x84\xf0\x03\xbaBA'
tRp2136
sS'2mass_abs_avg_dev'
p2137
S'0.0592666666667'
p2138
sS'targ_s2n'
p2139
F45.411204675547523
sS'sex_faintest'
p2140
(g11
(g13
S'uq\x1b\r\xe0\r1@'
tRp2141
g11
(g13
S'd\x18h/\xe2u\xc3?'
tRp2142
tp2143
sS'N_dither'
p2144
I6
sS'HJD_start'
p2145
g11
(g13
S'\x9d\x8fx\xf0\x03\xbaBA'
tRp2146
sS'STOP_CPU'
p2147
S'2008-03-10 09:14:27.119637'
p2148
sS'STRT_CPU'
p2149
S'2008-03-10 09:13:26.454042'
p2150
sS't_mid'
p2151
(F2158.5
F30.499999999999996
tp2152
sS'FileName'
p2153
g2072
sS'filter'
p2154
S'h'
sS'targ_mag'
p2155
(g11
(g13
S'~\xb7@\x82\xe2\x07.@'
tRp2156
F0.063193171396212666
tp2157
sS'Aperture'
p2158
I6
sS'HJD_stop'
p2159
g11
(g13
S'\x8c\x91\x8f\xf0\x03\xbaBA'
tRp2160
sS'targ_flux'
p2161
(F1256.5630000000001
F27.670770000000001
tp2162
sS'zp'
p2163
(g11
(g13
S'2\xc4\xb1.n\xc36@'
tRp2164
g11
(g13
S'\x16\x8f\x13\x12]K\x90?'
tRp2165
tp2166
sS'EXPTIME'
p2167
S'46.8'
p2168
ssS'k_long_GRB.108590.1_coadd_15-16.fits'
p2169
(dp2170
S'calib_stars'
p2171
(dp2172
S'220.049441'
p2173
(dp2174
S'2mass_e_mag'
p2175
F0.089999999999999997
sS'new_e_mag'
p2176
F0.115901612585848
sS'delta_mag'
p2177
g11
(g13
S'\x80\xcf\xd5V\xec/\xd7?'
tRp2178
sS'inst_mag'
p2179
F-7.4637000000000002
sS'delta_pos'
p2180
F2.210715496562913
sS'new_mag'
p2181
g11
(g13
S'v-!\x1f\xf4\x8c-@'
tRp2182
sS'ra'
p2183
F220.049441
sS'inst_e_mag'
p2184
F0.046300000000000001
sS'dec'
p2185
F-0.114549
sS'2mass_mag'
p2186
F14.413
ssS'220.041783'
p2187
(dp2188
g2175
F0.027
sg2176
F0.034672314604017998
sg2177
g11
(g13
S'\x00\xce\xb3Y\xf5\xb9\x9a?'
tRp2189
sg2179
F-10.145899999999999
sg2180
F2.0202457831669447
sg2181
g11
(g13
S'\xe3\x83\x9e\xcd\xaa/(@'
tRp2190
sg2183
F220.04178300000001
sg2184
F0.0044999999999999997
sg2185
F-0.200956
sg2186
F12.067
ssS'220.048875'
p2191
(dp2192
g2175
F0.104
sg2176
F0.089560525902877552
sg2177
g11
(g13
S'\x00\x1dZd;\xdf\xc7?'
tRp2193
sg2179
F-7.7824999999999998
sg2180
F1.9443456754127562
sg2181
g11
(g13
S'|?5^\xba\xe9,@'
tRp2194
sg2183
F220.04887500000001
sg2184
F0.034700000000000002
sg2185
F-0.118968
sg2186
F14.643000000000001
ssS'220.12869'
p2195
(dp2196
g2175
F0.087999999999999995
sg2176
F0.093815750276805873
sg2177
g11
(g13
S'\x00}\xd0\xb3Y\xf5\xb9?'
tRp2197
sg2179
F-7.8133999999999997
sg2180
F0.95055309809913746
sg2181
g11
(g13
S'\xedZB>\xe8\xd9,@'
tRp2198
sg2183
F220.12869000000001
sg2184
F0.036600000000000001
sg2185
F-0.110815
sg2186
F14.526999999999999
ssS'220.108846'
p2199
(dp2200
g2175
F0.029000000000000001
sg2176
F0.037203868078467317
sg2177
g11
(g13
S'\x00\xb8\xa8\xa4N@s?'
tRp2201
sg2179
F-9.5632999999999999
sg2180
F0.53345963733155699
sg2181
g11
(g13
S'{\xd0\xb3Y\xf5Y)@'
tRp2202
sg2183
F220.108846
sg2184
F0.0071999999999999998
sg2185
F-0.143456
sg2186
F12.670999999999999
ssS'220.068892'
p2203
(dp2204
g2175
F0.021000000000000001
sg2176
F0.03340658318355829
sg2177
g11
(g13
S'\x00\xd0\xa8\xa4N@s?'
tRp2205
sg2179
F-11.0167
sg2180
F1.2109145275568691
sg2181
g11
(g13
S'4\xcd;N\xd1q&@'
tRp2206
sg2183
F220.06889200000001
sg2184
F0.0023
sg2185
F-0.13592099999999999
sg2186
F11.227
ssS'220.142816'
p2207
(dp2208
g2175
F0.021000000000000001
sg2176
F0.033330631557172745
sg2177
g11
(g13
S'\x00\xacPk\x9aw\x8c?'
tRp2209
sg2179
F-11.158099999999999
sg2180
F0.37753835883880094
sg2181
g11
(g13
S"'~\x8c\xb9k)&@"
tRp2210
sg2183
F220.14281600000001
sg2184
F0.0020999999999999999
sg2185
F-0.139483
sg2186
F11.067
ssS'220.04723'
p2211
(dp2212
g2175
F0.024
sg2176
F0.033018101096216897
sg2177
g11
(g13
S'\x00T\xfc\x18s\xd7\x92?'
tRp2213
sg2179
F-12.4434
sg2180
F1.7092118179369578
sg2181
g11
(g13
S'*e\x19\xe2X\x97#@'
tRp2214
sg2183
F220.04723000000001
sg2184
F0.00089999999999999998
sg2185
F-0.177985
sg2186
F9.8140000000000001
ssS'220.150068'
p2215
(dp2216
g2175
F0.023
sg2176
F0.03307300712061121
sg2177
g11
(g13
S'\x00.\xdd$\x06\x81\xb5?'
tRp2217
sg2179
F-12.047000000000001
sg2180
F1.6827310155328925
sg2181
g11
(g13
S'\xfa\xa9\xf1\xd2Mb$@'
tRp2218
sg2183
F220.150068
sg2184
F0.0011999999999999999
sg2185
F-0.17136299999999999
sg2186
F10.108000000000001
ssS'220.038025'
p2219
(dp2220
g2175
F0.10199999999999999
sg2176
F0.084673073642097099
sg2177
g11
(g13
S'\xc0~\xfb:p\xce\xd0?'
tRp2221
sg2179
F-7.8536000000000001
sg2180
F2.1413405303228181
sg2181
g11
(g13
S'\xbc\xc1\x17&S\xc5,@'
tRp2222
sg2183
F220.038025
sg2184
F0.032500000000000001
sg2185
F-0.207151
sg2186
F14.648
ssS'220.0304'
p2223
(dp2224
g2175
F0.037999999999999999
sg2176
F0.042673455449494593
sg2177
g11
(g13
S'\x80(~\x8c\xb9k\xc1?'
tRp2225
sg2179
F-9.0450999999999997
sg2180
F2.230105767211461
sg2181
g11
(g13
S'\x87c]\xdcFc*@'
tRp2226
sg2183
F220.03039999999999
sg2184
F0.011299999999999999
sg2185
F-0.14829800000000001
sg2186
F13.33
ssS'220.057719'
p2227
(dp2228
g2175
F0.072999999999999995
sg2176
F0.074196494526358847
sg2177
g11
(g13
S'\x00\xe8\xb7\xaf\x03\xe7\xbc?'
tRp2229
sg2179
F-8.0281000000000002
sg2180
F1.8019363010703657
sg2181
g11
(g13
S'\xe9s\xb5\x15\xfbk,@'
tRp2230
sg2183
F220.05771899999999
sg2184
F0.027699999999999999
sg2185
F-0.17868500000000001
sg2186
F14.098000000000001
sssS'faintest_s2n'
p2231
F9.507092279448095
sS'HJD_mid'
p2232
g11
(g13
S'\x94\x10\x84\xf0\x03\xbaBA'
tRp2233
sS'2mass_abs_avg_dev'
p2234
S'0.109466666667'
p2235
sS'targ_s2n'
p2236
F32.164873676715395
sS'sex_faintest'
p2237
(g11
(g13
S'\xbd\x9f\x1a/\xdd\x04/@'
tRp2238
g11
(g13
S'6\xf3\x94-\xcfu\xc0?'
tRp2239
tp2240
sS'N_dither'
p2241
I6
sS'HJD_start'
p2242
g11
(g13
S'\x9d\x8fx\xf0\x03\xbaBA'
tRp2243
sS'STOP_CPU'
p2244
S'2008-03-10 09:14:27.119637'
p2245
sS'STRT_CPU'
p2246
S'2008-03-10 09:13:26.454042'
p2247
sS't_mid'
p2248
(F2158.5
F30.499999999999996
tp2249
sS'FileName'
p2250
g2169
sS'filter'
p2251
S'k'
sS'targ_mag'
p2252
(g11
(g13
S'\\m\xc5\xfe\xb2\xdb,@'
tRp2253
F0.087555604046799865
tp2254
sS'Aperture'
p2255
I6
sS'HJD_stop'
p2256
g11
(g13
S'\x8c\x91\x8f\xf0\x03\xbaBA'
tRp2257
sS'targ_flux'
p2258
(F1330.3440000000001
F41.360149999999997
tp2259
sS'zp'
p2260
(g11
(g13
S'v\xbe\x9f\x1a/=6@'
tRp2261
g11
(g13
S']\xc8J\xe5\x92\xd0\x99?'
tRp2262
tp2263
sS'EXPTIME'
p2264
S'46.8'
p2265
ssS'h_long_GRB.108590.1_coadd_9-10.fits'
p2266
(dp2267
S'calib_stars'
p2268
(dp2269
S'220.049441'
p2270
(dp2271
S'2mass_e_mag'
p2272
F0.058999999999999997
sS'new_e_mag'
p2273
F0.046971183837658498
sS'delta_mag'
p2274
g11
(g13
S'\x00\xa3\xd64\xef8\xa5?'
tRp2275
sS'inst_mag'
p2276
F-8.1852
sS'delta_pos'
p2277
F0.2340570895053451
sS'new_mag'
p2278
g11
(g13
S'\xb5b\x7f\xd9=)-@'
tRp2279
sS'ra'
p2280
F220.049441
sS'inst_e_mag'
p2281
F0.016199999999999999
sS'dec'
p2282
F-0.114549
sS'2mass_mag'
p2283
F14.622
ssS'220.041783'
p2284
(dp2285
g2272
F0.025999999999999999
sg2273
F0.02703031096955991
sg2274
g11
(g13
S'\x00\xf0\xe26\x1a\xc0\x8b?'
tRp2286
sg2276
F-10.580299999999999
sg2277
F0.8324877799689443
sg2278
g11
(g13
S'\x1d\x16jM\xf3^(@'
tRp2287
sg2280
F220.04178300000001
sg2281
F0.0025000000000000001
sg2282
F-0.200956
sg2283
F12.199
ssS'220.048875'
p2288
(dp2289
g2272
F0.066000000000000003
sg2273
F0.046179693709585287
sg2274
g11
(g13
S'\x00\x97\x90\x0fz6\xd5?'
tRp2290
sg2276
F-8.2162000000000006
sg2277
F0.55636984896504571
sg2278
g11
(g13
S'\x98\x08\x1b\x9e^\x19-@'
tRp2291
sg2280
F220.04887500000001
sg2281
F0.015800000000000002
sg2282
F-0.118968
sg2283
F14.881
ssS'220.12869'
p2292
(dp2293
g2272
F0.068000000000000005
sg2273
F0.043082294636092804
sg2274
g11
(g13
S'\xc0\x99*\x18\x95\xd4\xc5?'
tRp2294
sg2276
F-8.3373000000000008
sg2277
F1.6919129961007668
sg2278
g11
(g13
S'?\xf1c\xcc]\xdb,@'
tRp2295
sg2280
F220.12869000000001
sg2281
F0.014200000000000001
sg2282
F-0.110815
sg2283
F14.599
ssS'220.108846'
p2296
(dp2297
g2272
F0.029000000000000001
sg2273
F0.02788928308707685
sg2274
g11
(g13
S'\x00\xe8ZB>\xe8\x89?'
tRp2298
sg2276
F-9.9771000000000001
sg2277
F1.6763272416818296
sg2278
g11
(g13
S'\x14\xfb\xcb\xee\xc9\x93)@'
tRp2299
sg2280
F220.108846
sg2281
F0.0038
sg2282
F-0.143456
sg2283
F12.776
ssS'220.068892'
p2300
(dp2301
g2272
F0.027
sg2273
F0.026569292634752453
sg2274
g11
(g13
S'\x00\x9f\xf81\xe6\xae\xa5?'
tRp2302
sg2276
F-11.4594
sg2277
F0.86469405856267711
sg2278
g11
(g13
S'YB>\xe8\xd9\x9c&@'
tRp2303
sg2280
F220.06889200000001
sg2281
F0.0014
sg2282
F-0.13592099999999999
sg2283
F11.263999999999999
ssS'220.142816'
p2304
(dp2305
g2272
F0.024
sg2273
F0.026540009629069675
sg2274
g11
(g13
S'\x00\xdd\xe0\x0b\x93\xa9\xa2?'
tRp2306
sg2276
F-11.6433
sg2277
F2.4918606866361457
sg2278
g11
(g13
S'V\xca2\xc4\xb1>&@'
tRp2307
sg2280
F220.14281600000001
sg2281
F0.0012999999999999999
sg2282
F-0.139483
sg2283
F11.086
ssS'220.04723'
p2308
(dp2309
g2272
F0.027
sg2273
F0.026409470102808027
sg2274
g11
(g13
S'\x00\xb8\x07=\x9bU\x7f?'
tRp2310
sg2276
F-12.8291
sg2277
F0.65820665812504164
sg2278
g11
(g13
S'\xc6\x98\xbb\x96\x90\xdf#@'
tRp2311
sg2280
F220.04723000000001
sg2281
F0.00069999999999999999
sg2282
F-0.177985
sg2283
F9.9290000000000003
ssS'220.150068'
p2312
(dp2313
g2272
F0.021000000000000001
sg2273
F0.026425822808592184
sg2274
g11
(g13
S'\x80@\xf1c\xcc]\xb3?'
tRp2314
sg2276
F-12.5161
sg2277
F2.6495854800389473
sg2278
g11
(g13
S'\x8d\xe4\xf2\x1f\xd2\x7f$@'
tRp2315
sg2280
F220.150068
sg2281
F0.00080000000000000004
sg2282
F-0.17136299999999999
sg2283
F10.173999999999999
ssS'220.038025'
p2316
(dp2317
g2272
F0.056000000000000001
sg2273
F0.047568873342881596
sg2274
g11
(g13
S'\x00X\x8f\xc2\xf5(\x8c?'
tRp2318
sg2276
F-8.1639999999999997
sg2277
F0.86639125616166757
sg2278
g11
(g13
S'i\xbct\x93\x184-@'
tRp2319
sg2280
F220.038025
sg2281
F0.016500000000000001
sg2282
F-0.207151
sg2283
F14.587999999999999
ssS'220.057719'
p2320
(dp2321
g2272
F0.045999999999999999
sg2273
F0.039573578447129477
sg2274
g11
(g13
S'\x00\x86\x04\xc5\x8f1\x97?'
tRp2322
sg2276
F-8.5004000000000008
sg2277
F1.1645562168251002
sg2278
g11
(g13
S'\xb7\xfc\x87\xf4\xdb\x87,@'
tRp2323
sg2280
F220.05771899999999
sg2281
F0.0123
sg2282
F-0.17868500000000001
sg2283
F14.288
ssS'220.0304'
p2324
(dp2325
g2272
F0.035000000000000003
sg2273
F0.029918945688494954
sg2274
g11
(g13
S'\x00\xd0\x07=\x9bU\x7f?'
tRp2326
sg2276
F-9.3973999999999993
sg2277
F0.25330518786411521
sg2278
g11
(g13
S'\x93\xf6\x06_\x98\xbc*@'
tRp2327
sg2280
F220.03039999999999
sg2281
F0.0058999999999999999
sg2282
F-0.14829800000000001
sg2283
F13.375999999999999
sssS'faintest_s2n'
p2328
F12.540013303651142
sS'HJD_mid'
p2329
g11
(g13
S'\xce\xc51\xf0\x03\xbaBA'
tRp2330
sS'STOP_CPU'
p2331
S'2008-03-10 09:10:50.099651'
p2332
sS'targ_s2n'
p2333
F49.824489521130388
sS'sex_faintest'
p2334
(g11
(g13
S'\x03V\x0e-\xb2\x850@'
tRp2335
g11
(g13
S'\xcd/\xd9l\xe8Q\xbe?'
tRp2336
tp2337
sS'N_dither'
p2338
I6
sS'HJD_start'
p2339
g11
(g13
S';H&\xf0\x03\xbaBA'
tRp2340
sS'2mass_abs_avg_dev'
p2341
S'0.06465'
p2342
sS'STRT_CPU'
p2343
S'2008-03-10 09:09:49.503893'
p2344
sS't_mid'
p2345
(F1941.5000000000002
F30.499999999999996
tp2346
sS'FileName'
p2347
g2266
sS'filter'
p2348
S'h'
sS'targ_mag'
p2349
(g11
(g13
S'dffff\xd6-@'
tRp2350
F0.05858344570875898
tp2351
sS'Aperture'
p2352
I6
sS'HJD_stop'
p2353
g11
(g13
S'bC=\xf0\x03\xbaBA'
tRp2354
sS'targ_flux'
p2355
(F1376.55
F27.627980000000001
tp2356
sS'zp'
p2357
(g11
(g13
S'x\xe9&1\x08\xc46@'
tRp2358
g11
(g13
S'-\xe5\x04\xf1*\x04\x90?'
tRp2359
tp2360
sS'EXPTIME'
p2361
S'46.8'
p2362
ssS'k_long_GRB.108590.1_coadd_13-14.fits'
p2363
(dp2364
S'calib_stars'
p2365
(dp2366
S'220.049441'
p2367
(dp2368
S'2mass_e_mag'
p2369
F0.089999999999999997
sS'new_e_mag'
p2370
F0.089979165999966831
sS'delta_mag'
p2371
g11
(g13
S'\x00\x9a\x99\x99\x99\x99\x99?'
tRp2372
sS'inst_mag'
p2373
F-7.7842000000000002
sS'delta_pos'
p2374
F2.4526169352784426
sS'new_mag'
p2375
g11
(g13
S'\xc7K7\x89A\xe0,@'
tRp2376
sS'ra'
p2377
F220.049441
sS'inst_e_mag'
p2378
F0.034500000000000003
sS'dec'
p2379
F-0.114549
sS'2mass_mag'
p2380
F14.413
ssS'220.041783'
p2381
(dp2382
g2369
F0.027
sg2370
F0.036838163825706441
sg2371
g11
(g13
S'\x00\xb9\xfc\x87\xf4\xdb\xa7?'
tRp2383
sg2373
F-10.2018
sg2374
F2.513448550461308
sg2375
g11
(g13
S'C\xadi\xdeq\n(@'
tRp2384
sg2377
F220.04178300000001
sg2378
F0.0044999999999999997
sg2379
F-0.200956
sg2380
F12.067
ssS'220.048875'
p2385
(dp2386
g2369
F0.104
sg2370
F0.084708747565110321
sg2371
g11
(g13
S'\xa0<,\xd4\x9a\xe6\xd1?'
tRp2387
sg2373
F-7.8589000000000002
sg2374
F1.9165547018873408
sg2375
g11
(g13
S'\x0bF%u\x02\xba,@'
tRp2388
sg2377
F220.04887500000001
sg2378
F0.032099999999999997
sg2379
F-0.118968
sg2380
F14.643000000000001
ssS'220.12869'
p2389
(dp2390
g2369
F0.087999999999999995
sg2370
F0.095975667301923903
sg2371
g11
(g13
S'\x00\x00\x00\x00\x00\x00\xe0<'
tRp2391
sg2373
F-7.6951999999999998
sg2374
F1.003712624389183
sg2375
g11
(g13
S'\xe8\xfb\xa9\xf1\xd2\r-@'
tRp2392
sg2377
F220.12869000000001
sg2378
F0.037199999999999997
sg2379
F-0.110815
sg2380
F14.526999999999999
ssS'220.108846'
p2393
(dp2394
g2369
F0.029000000000000001
sg2370
F0.039230201555046675
sg2371
g11
(g13
S'\x00\x04\xce\x19Q\xda\x8b?'
tRp2395
sg2373
F-9.5648
sg2374
F0.79011466243265038
sg2375
g11
(g13
S'\xe3\xc7\x98\xbb\x96P)@'
tRp2396
sg2377
F220.108846
sg2378
F0.0071999999999999998
sg2379
F-0.143456
sg2380
F12.670999999999999
ssS'220.068892'
p2397
(dp2398
g2369
F0.021000000000000001
sg2370
F0.035687363506563305
sg2371
g11
(g13
S'\x00\x90J\xea\x044q?'
tRp2399
sg2373
F-10.991
sg2374
F1.4190646333612944
sg2375
g11
(g13
S'\xa0\xab\xad\xd8_v&@'
tRp2400
sg2377
F220.06889200000001
sg2378
F0.0023999999999999998
sg2379
F-0.13592099999999999
sg2380
F11.227
ssS'220.142816'
p2401
(dp2402
g2369
F0.021000000000000001
sg2370
F0.035545046265964921
sg2371
g11
(g13
S'\x80\xbe\x0e\x9c3\xa2\xb4?'
tRp2403
sg2373
F-11.235799999999999
sg2374
F0.41442141128694898
sg2375
g11
(g13
S'\x7f\x8c\xb9k\t\xf9%@'
tRp2404
sg2377
F220.14281600000001
sg2378
F0.002
sg2379
F-0.139483
sg2380
F11.067
ssS'220.04723'
p2405
(dp2406
g2369
F0.024
sg2370
F0.035285633252778482
sg2371
g11
(g13
S'\x00\x04\xce\x19Q\xda\x8b?'
tRp2407
sg2373
F-12.421799999999999
sg2374
F2.0418739999894746
sg2375
g11
(g13
S'\xd3o_\x07\xce\x99#@'
tRp2408
sg2377
F220.04723000000001
sg2378
F0.00089999999999999998
sg2379
F-0.177985
sg2380
F9.8140000000000001
ssS'220.150068'
p2409
(dp2410
g2369
F0.023
sg2370
F0.035318266011365659
sg2371
g11
(g13
S'\x00\x1a\xe2X\x17\xb7\xa1?'
tRp2411
sg2373
F-12.079599999999999
sg2374
F1.6452410538161371
sg2375
g11
(g13
S'\xb8\xd1\x00\xde\x02I$@'
tRp2412
sg2377
F220.150068
sg2378
F0.0011000000000000001
sg2379
F-0.17136299999999999
sg2380
F10.108000000000001
ssS'220.038025'
p2413
(dp2414
g2369
F0.10199999999999999
sg2370
F0.1440517709507578
sg2371
g11
(g13
S'\x00\x146<\xbdR\x86?'
tRp2415
sg2373
F-7.5632999999999999
sg2374
F2.3879560914204085
sg2375
g11
(g13
S'7\xab>W[Q-@'
tRp2416
sg2377
F220.038025
sg2378
F0.058200000000000002
sg2379
F-0.207151
sg2380
F14.648
ssS'220.057719'
p2417
(dp2418
g2369
F0.072999999999999995
sg2370
F0.072281012126626909
sg2371
g11
(g13
S"\x000\xbb'\x0f\x0b\xa5?"
tRp2419
sg2373
F-8.0831
sg2374
F2.0485323815200172
sg2375
g11
(g13
S'I\xbf}\x1d8G,@'
tRp2420
sg2377
F220.05771899999999
sg2378
F0.0263
sg2379
F-0.17868500000000001
sg2380
F14.098000000000001
sssS'faintest_s2n'
p2421
F10.621258697996117
sS'HJD_mid'
p2422
g11
(g13
S'F\x9eh\xf0\x03\xbaBA'
tRp2423
sS'STOP_CPU'
p2424
S'2008-03-10 09:13:14.749561'
p2425
sS'targ_s2n'
p2426
F35.282698362383634
sS'sex_faintest'
p2427
(g11
(g13
S'n4\x80\xb7@b/@'
tRp2428
g11
(g13
S'\x95\x87\xdd\r\xc6\x91\xbc?'
tRp2429
tp2430
sS'N_dither'
p2431
I6
sS'HJD_start'
p2432
g11
(g13
S'O\x1d]\xf0\x03\xbaBA'
tRp2433
sS'2mass_abs_avg_dev'
p2434
S'0.0499909090909'
p2435
sS'STRT_CPU'
p2436
S'2008-03-10 09:12:14.083992'
p2437
sS't_mid'
p2438
(F2086
F30
tp2439
sS'FileName'
p2440
g2363
sS'filter'
p2441
S'k'
sS'targ_mag'
p2442
(g11
(g13
S'\xe0\xe0\x0b\x93\xa9\xa2,@'
tRp2443
F0.081881479676722907
tp2444
sS'Aperture'
p2445
I6
sS'HJD_stop'
p2446
g11
(g13
S'=\x1ft\xf0\x03\xbaBA'
tRp2447
sS'targ_flux'
p2448
(F1451.454
F41.137839999999997
tp2449
sS'zp'
p2450
(g11
(g13
S'\xd4+e\x19\xe286@'
tRp2451
g11
(g13
S'\x83!i\x7f\xfa\xc9\x9c?'
tRp2452
tp2453
sS'EXPTIME'
p2454
S'46.8'
p2455
ssS'j_long_GRB.108590.1_coadd_19-20.fits'
p2456
(dp2457
S'calib_stars'
p2458
(dp2459
S'220.049441'
p2460
(dp2461
S'2mass_e_mag'
p2462
F0.041000000000000002
sS'new_e_mag'
p2463
F0.036345087087141514
sS'delta_mag'
p2464
g11
(g13
S'\x00\x00\x00\x00\x00\x00\xe0<'
tRp2465
sS'inst_mag'
p2466
F-8.2199000000000009
sS'delta_pos'
p2467
F0.18095039067801486
sS'new_mag'
p2468
g11
(g13
S'\xa1E\xb6\xf3\xfd\x14.@'
tRp2469
sS'ra'
p2470
F220.049441
sS'inst_e_mag'
p2471
F0.0109
sS'dec'
p2472
F-0.114549
sS'2mass_mag'
p2473
F15.041
ssS'220.041783'
p2474
(dp2475
g2462
F0.025999999999999999
sg2463
F0.026050146935706536
sg2464
g11
(g13
S'\x00\xe4\xc7\x98\xbb\x96\x80?'
tRp2476
sg2466
F-10.557
sg2467
F0.2065485794986002
sg2468
g11
(g13
S'\rO\xaf\x94eh)@'
tRp2477
sg2470
F220.04178300000001
sg2471
F0.0027000000000000001
sg2472
F-0.200956
sg2473
F12.712
ssS'220.048875'
p2478
(dp2479
g2462
F0.057000000000000002
sg2463
F0.041445315240348946
sg2464
g11
(g13
S'\x00\xaa\xf1\xd2Mb\xc8?'
tRp2480
sg2466
F-7.9363999999999999
sg2467
F0.4389742440717106
sg2468
g11
(g13
S'\xa0\x1a/\xdd$\xa6.@'
tRp2481
sg2470
F220.04887500000001
sg2471
F0.0137
sg2472
F-0.118968
sg2473
F15.515000000000001
ssS'220.12869'
p2482
(dp2483
g2462
F0.033000000000000002
sg2463
F0.034657717111372194
sg2464
g11
(g13
S'\x00\xc0\xa8\xa4N@s?'
tRp2484
sg2466
F-8.3301999999999996
sg2467
F0.71524115604035943
sg2468
g11
(g13
S'?\xc6\xdc\xb5\x84\xdc-@'
tRp2485
sg2470
F220.12869000000001
sg2471
F0.0099000000000000008
sg2472
F-0.110815
sg2473
F14.926
ssS'220.108846'
p2486
(dp2487
g2462
F0.023
sg2463
F0.026374270707867936
sg2464
g11
(g13
S'\x00\xe8&1\x08\xac|?'
tRp2488
sg2466
F-9.9459
sg2467
F0.73676342264448713
sg2468
g11
(g13
S'\xe1z\x14\xaeG\xa1*@'
tRp2489
sg2470
F220.108846
sg2471
F0.0032000000000000002
sg2472
F-0.143456
sg2473
F13.321999999999999
ssS'220.068892'
p2490
(dp2491
g2462
F0.024
sg2463
F0.02539516007769789
sg2464
g11
(g13
S'\x00\xecZB>\xe8\x99?'
tRp2492
sg2466
F-11.634600000000001
sg2467
F0.16960509496607437
sg2468
g11
(g13
S"7\xf8\xc2d\xaa@'@"
tRp2493
sg2470
F220.06889200000001
sg2471
F0.0011999999999999999
sg2472
F-0.13592099999999999
sg2473
F11.601000000000001
ssS'220.142816'
p2494
(dp2495
g2462
F0.024
sg2463
F0.025423496128028904
sg2464
g11
(g13
S'\x00P\x0c\x02+\x87v?'
tRp2496
sg2466
F-11.6394
sg2467
F0.99648644561652999
sg2468
g11
(g13
S"\x91\xed|?5>'@"
tRp2497
sg2470
F220.14281600000001
sg2471
F0.0012999999999999999
sg2472
F-0.139483
sg2473
F11.627000000000001
ssS'220.04723'
p2498
(dp2499
g2462
F0.024
sg2463
F0.025287193505248873
sg2464
g11
(g13
S'\x00m\xc5\xfe\xb2{\xb2?'
tRp2500
sg2466
F-12.6967
sg2467
F0.057501512462316891
sg2468
g11
(g13
S'p\xce\x88\xd2\xde %@'
tRp2501
sg2470
F220.04723000000001
sg2471
F0.00069999999999999999
sg2472
F-0.177985
sg2473
F10.492000000000001
ssS'220.150068'
p2502
(dp2503
g2462
F0.028000000000000001
sg2463
F0.025304271484709862
sg2464
g11
(g13
S'\x00\xa6\x9b\xc4 \xb0\xa2?'
tRp2504
sg2466
F-12.6014
sg2467
F0.87840567877503661
sg2468
g11
(g13
S'\x8bl\xe7\xfb\xa9Q%@'
tRp2505
sg2470
F220.150068
sg2471
F0.00080000000000000004
sg2472
F-0.17136299999999999
sg2473
F10.622999999999999
ssS'220.038025'
p2506
(dp2507
g2462
F0.043999999999999997
sg2463
F0.036001141028749357
sg2464
g11
(g13
S'\x00\x14\xaeG\xe1z\x94?'
tRp2508
sg2466
F-8.2439
sg2467
F0.32348662119842675
sg2468
g11
(g13
S'b\x10X9\xb4\x08.@'
tRp2509
sg2470
F220.038025
sg2471
F0.010699999999999999
sg2472
F-0.207151
sg2473
F14.997
ssS'220.057719'
p2510
(dp2511
g2462
F0.047
sg2463
F0.035660338688407053
sg2464
g11
(g13
S'\x00W[\xb1\xbf\xec\xbe?'
tRp2512
sg2466
F-8.3516999999999992
sg2467
F0.46436572025168771
sg2468
g11
(g13
S'\xe1\x0b\x93\xa9\x82\xd1-@'
tRp2513
sg2470
F220.05771899999999
sg2471
F0.010500000000000001
sg2472
F-0.17868500000000001
sg2473
F15.029999999999999
sssS'faintest_s2n'
p2514
F7.5619534023970809
sS'HJD_mid'
p2515
g11
(g13
S'\xe0R\xbb\xf0\x03\xbaBA'
tRp2516
sS'STOP_CPU'
p2517
S'2008-03-10 09:16:52.869537'
p2518
sS'targ_s2n'
p2519
F53.371154228321444
sS'sex_faintest'
p2520
(g11
(g13
S't\xb5\x15\xfb\xcb\xfe1@'
tRp2521
g11
(g13
S'b8\xd6\xaa\xbav\xc2?'
tRp2522
tp2523
sS'N_dither'
p2524
I6
sS'HJD_start'
p2525
g11
(g13
S'\x8c\xcd\xaf\xf0\x03\xbaBA'
tRp2526
sS'2mass_abs_avg_dev'
p2527
S'0.0446'
p2528
sS'STRT_CPU'
p2529
S'2008-03-10 09:15:52.114165'
p2530
sS't_mid'
p2531
(F2304
F30
tp2532
sS'FileName'
p2533
g2456
sS'filter'
p2534
S'j'
sS'targ_mag'
p2535
(g11
(g13
S'`\xe5\xd0"\xdb\x99/@'
tRp2536
F0.054865819554362802
tp2537
sS'Aperture'
p2538
I6
sS'HJD_stop'
p2539
g11
(g13
S'3\xd8\xc6\xf0\x03\xbaBA'
tRp2540
sS'targ_flux'
p2541
(F964.14829999999995
F18.064969999999999
tp2542
sS'zp'
p2543
(g11
(g13
S'\xc2\x86\xa7W\xcaB7@'
tRp2544
g11
(g13
S't&\xc8\xd4<\xfa\x8b?'
tRp2545
tp2546
sS'EXPTIME'
p2547
S'46.8'
p2548
ssS'k_long_GRB.108590.1_coadd_1-2.fits'
p2549
(dp2550
S'calib_stars'
p2551
(dp2552
S'220.049441'
p2553
(dp2554
S'2mass_e_mag'
p2555
F0.089999999999999997
sS'new_e_mag'
p2556
F0.099727870728297419
sS'delta_mag'
p2557
g11
(g13
S'\x80\x8b\xdbh\x00o\xc1?'
tRp2558
sS'inst_mag'
p2559
F-7.6628999999999996
sS'delta_pos'
p2560
F2.3182820167967022
sS'new_mag'
p2561
g11
(g13
S'(\xed\r\xbe0\x19-@'
tRp2562
sS'ra'
p2563
F220.049441
sS'inst_e_mag'
p2564
F0.039199999999999999
sS'dec'
p2565
F-0.114549
sS'2mass_mag'
p2566
F14.413
ssS'220.041783'
p2567
(dp2568
g2555
F0.027
sg2556
F0.034802899304511969
sg2557
g11
(g13
S'\x00\x00\xce\x19Q\xda[?'
tRp2569
sg2559
F-10.1434
sg2560
F1.8625063619870754
sg2561
g11
(g13
S'lxz\xa5,#(@'
tRp2570
sg2563
F220.04178300000001
sg2564
F0.0044999999999999997
sg2565
F-0.200956
sg2566
F12.067
ssS'220.048875'
p2571
(dp2572
g2555
F0.104
sg2556
F0.10517902547561467
sg2557
g11
(g13
S'\x00`\x07\xce\x19Q\x9a?'
tRp2573
sg2559
F-7.5948000000000002
sg2560
F1.7221349851312684
sg2561
g11
(g13
S'@\xa4\xdf\xbe\x0e<-@'
tRp2574
sg2563
F220.04887500000001
sg2564
F0.041599999999999998
sg2565
F-0.118968
sg2566
F14.643000000000001
ssS'220.12869'
p2575
(dp2576
g2555
F0.087999999999999995
sg2556
F0.10222211208931266
sg2557
g11
(g13
S'\x00\x97!\x8euq\xab?'
tRp2577
sg2559
F-7.6315
sg2560
F1.2509038348312866
sg2561
g11
(g13
S'~\x1d8gD)-@'
tRp2578
sg2563
F220.12869000000001
sg2564
F0.040300000000000002
sg2565
F-0.110815
sg2566
F14.526999999999999
ssS'220.108846'
p2579
(dp2580
g2555
F0.029000000000000001
sg2556
F0.037437310266631066
sg2557
g11
(g13
S'\x00\x94e\x88c]\x9c?'
tRp2581
sg2559
F-9.5687999999999995
sg2560
F0.30288462130086624
sg2561
g11
(g13
S'\x9a\x08\x1b\x9e^I)@'
tRp2582
sg2563
F220.108846
sg2564
F0.0073000000000000001
sg2565
F-0.143456
sg2566
F12.670999999999999
ssS'220.068892'
p2583
(dp2584
g2555
F0.021000000000000001
sg2556
F0.033582426952202246
sg2557
g11
(g13
S'\x00\x16jM\xf3\x8e\x93?'
tRp2585
sg2559
F-10.965999999999999
sg2560
F1.0628784453039868
sg2561
g11
(g13
S'Y\x17\xb7\xd1\x00~&@'
tRp2586
sg2563
F220.06889200000001
sg2564
F0.0023999999999999998
sg2565
F-0.13592099999999999
sg2566
F11.227
ssS'220.142816'
p2587
(dp2588
g2555
F0.021000000000000001
sg2556
F0.033466451858540365
sg2557
g11
(g13
S'\x00\x08\xce\x19Q\xda\x8b?'
tRp2589
sg2559
F-11.1587
sg2560
F0.50122060074972552
sg2561
g11
(g13
S'z6\xab>W\x1b&@'
tRp2590
sg2563
F220.14281600000001
sg2564
F0.0020999999999999999
sg2565
F-0.139483
sg2566
F11.067
ssS'220.04723'
p2591
(dp2592
g2555
F0.024
sg2556
F0.03315520170350348
sg2557
g11
(g13
S'\x00 \xce\x19Q\xda[?'
tRp2593
sg2559
F-12.399800000000001
sg2560
F1.4211733829631092
sg2561
g11
(g13
S'\xe3\x14\x1d\xc9\xe5\x9f#@'
tRp2594
sg2563
F220.04723000000001
sg2564
F0.00089999999999999998
sg2565
F-0.177985
sg2566
F9.8140000000000001
ssS'220.150068'
p2595
(dp2596
g2555
F0.023
sg2556
F0.033209881059708714
sg2557
g11
(g13
S'\x00A`\xe5\xd0"\xbb?'
tRp2597
sg2559
F-11.998100000000001
sg2560
F1.629788619759629
sg2561
g11
(g13
S' \xb0rh\x91m$@'
tRp2598
sg2563
F220.150068
sg2564
F0.0011999999999999999
sg2565
F-0.17136299999999999
sg2566
F10.108000000000001
ssS'220.038025'
p2599
(dp2600
g2555
F0.10199999999999999
sg2556
F0.084505735899996742
sg2557
g11
(g13
S'\x00O\xaf\x94e\x88\xd3?'
tRp2601
sg2559
F-7.8693
sg2560
F1.9758515151386367
sg2561
g11
(g13
S':#J{\x83\xaf,@'
tRp2602
sg2563
F220.038025
sg2564
F0.032399999999999998
sg2565
F-0.207151
sg2566
F14.648
ssS'220.057719'
p2603
(dp2604
g2555
F0.072999999999999995
sg2556
F0.074687638870163789
sg2557
g11
(g13
S'\x00\xdd\x93\x87\x85Z\xb3?'
tRp2605
sg2559
F-8.0385000000000009
sg2560
F1.4824433500214302
sg2561
g11
(g13
S'\xd3+e\x19\xe2X,@'
tRp2606
sg2563
F220.05771899999999
sg2564
F0.027900000000000001
sg2565
F-0.17868500000000001
sg2566
F14.098000000000001
ssS'220.0304'
p2607
(dp2608
g2555
F0.037999999999999999
sg2556
F0.043863900875321153
sg2557
g11
(g13
S'\x00\xd0D\xd8\xf0\xf4\xba?'
tRp2609
sg2559
F-8.9873999999999992
sg2560
F2.1557097142397317
sg2561
g11
(g13
S'\x89\xd2\xde\xe0\x0bs*@'
tRp2610
sg2563
F220.03039999999999
sg2564
F0.012
sg2565
F-0.14829800000000001
sg2566
F13.33
sssS'faintest_s2n'
p2611
F9.4083196296855025
sS'HJD_mid'
p2612
g11
(g13
S'v\x8b\xc3\xef\x03\xbaBA'
tRp2613
sS'STOP_CPU'
p2614
S'2008-03-10 09:05:59.489137'
p2615
sS'targ_s2n'
p2616
F40.589630542035536
sS'sex_faintest'
p2617
(g11
(g13
S"TR'\xa0\x89 1@"
tRp2618
g11
(g13
S'\x8a#:\xfd\xea\xae\xe2?'
tRp2619
tp2620
sS'N_dither'
p2621
I6
sS'HJD_start'
p2622
g11
(g13
S'\x81\n\xb8\xef\x03\xbaBA'
tRp2623
sS'2mass_abs_avg_dev'
p2624
S'0.0726166666667'
p2625
sS'STRT_CPU'
p2626
S'2008-03-10 09:04:58.823726'
p2627
sS't_mid'
p2628
(F1650.5
F30.499999999999996
tp2629
sS'FileName'
p2630
g2549
sS'filter'
p2631
S'k'
sS'targ_mag'
p2632
(g11
(g13
S'5^\xbaI\x0cB,@'
tRp2633
F0.072330244020050144
tp2634
sS'Aperture'
p2635
I6
sS'HJD_stop'
p2636
g11
(g13
S'l\x0c\xcf\xef\x03\xbaBA'
tRp2637
sS'targ_flux'
p2638
(F1710.913
F42.151479999999999
tp2639
sS'zp'
p2640
(g11
(g13
S'J{\x83/L66@'
tRp2641
g11
(g13
S'\xec%\xc6\x94\x93\xff\x99?'
tRp2642
tp2643
sS'EXPTIME'
p2644
S'46.8'
p2645
ssS'h_long_GRB.108590.1_coadd_21-22.fits'
p2646
(dp2647
S'calib_stars'
p2648
(dp2649
S'220.049441'
p2650
(dp2651
S'2mass_e_mag'
p2652
F0.058999999999999997
sS'new_e_mag'
p2653
F0.04917476295824922
sS'delta_mag'
p2654
g11
(g13
S'\x00\x84\x9e\xcd\xaa\xcf\xa5?'
tRp2655
sS'inst_mag'
p2656
F-8.1694999999999993
sS'delta_pos'
p2657
F0.41173423301147299
sS'new_mag'
p2658
g11
(g13
S'\xd4\x9a\xe6\x1d\xa7(-@'
tRp2659
sS'ra'
p2660
F220.049441
sS'inst_e_mag'
p2661
F0.016799999999999999
sS'dec'
p2662
F-0.114549
sS'2mass_mag'
p2663
F14.622
ssS'220.041783'
p2664
(dp2665
g2652
F0.025999999999999999
sg2653
F0.028833877852276472
sg2654
g11
(g13
S'\x00\xe1\xe9\x95\xb2\x0c\xa1?'
tRp2666
sg2656
F-10.5166
sg2657
F1.0351595606135797
sg2658
g11
(g13
S'\xba\xb8\x8d\x06\xf0v(@'
tRp2667
sg2660
F220.04178300000001
sg2661
F0.0025999999999999999
sg2662
F-0.200956
sg2663
F12.199
ssS'220.048875'
p2668
(dp2669
g2652
F0.066000000000000003
sg2653
F0.049964920814507444
sg2654
g11
(g13
S'`Y\x868\xd6\xc5\xd1?'
tRp2670
sg2656
F-8.1456
sg2657
F0.22127678373772733
sg2658
g11
(g13
S'\x85Z\xd3\xbc\xe34-@'
tRp2671
sg2660
F220.04887500000001
sg2661
F0.0172
sg2662
F-0.118968
sg2663
F14.881
ssS'220.12869'
p2672
(dp2673
g2652
F0.068000000000000005
sg2653
F0.048001138653161128
sg2654
g11
(g13
S'\x00\x8e\x06\xf0\x16H\xb0?'
tRp2674
sg2656
F-8.2134999999999998
sg2657
F1.6416081174543919
sg2658
g11
(g13
S'\x8a\x8e\xe4\xf2\x1f\x12-@'
tRp2675
sg2660
F220.12869000000001
sg2661
F0.016199999999999999
sg2662
F-0.110815
sg2663
F14.599
ssS'220.108846'
p2676
(dp2677
g2652
F0.029000000000000001
sg2653
F0.029591034317847015
sg2654
g11
(g13
S'\x000e\x19\xe2Xw?'
tRp2678
sg2656
F-9.9786000000000001
sg2657
F1.422415879618548
sg2658
g11
(g13
S'\xb47\xf8\xc2d\x8a)@'
tRp2679
sg2660
F220.108846
sg2661
F0.0038
sg2662
F-0.143456
sg2663
F12.776
ssS'220.068892'
p2680
(dp2681
g2652
F0.027
sg2653
F0.028350388216036825
sg2654
g11
(g13
S'\x00\x98\xdd\x93\x87\x85\xaa?'
tRp2682
sg2656
F-11.4331
sg2657
F0.62071962892756682
sg2658
g11
(g13
S"R'\xa0\x89\xb0\xa1&@"
tRp2683
sg2660
F220.06889200000001
sg2661
F0.0014
sg2662
F-0.13592099999999999
sg2663
F11.263999999999999
ssS'220.038025'
p2684
(dp2685
g2652
F0.056000000000000001
sg2653
F0.049569092305588973
sg2654
g11
(g13
S'\x00(e\x19\xe2Xw?'
tRp2686
sg2656
F-8.1552000000000007
sg2657
F1.0386853403653333
sg2658
g11
(g13
S'8EGr\xf9/-@'
tRp2687
sg2660
F220.038025
sg2661
F0.017000000000000001
sg2662
F-0.207151
sg2663
F14.587999999999999
ssS'220.142816'
p2688
(dp2689
g2652
F0.024
sg2653
F0.02832294673934899
sg2654
g11
(g13
S'\x00E\xb6\xf3\xfd\xd4\xa8?'
tRp2690
sg2656
F-11.6144
sg2657
F2.3475068546234352
sg2658
g11
(g13
S'\xbe\x9f\x1a/\xddD&@'
tRp2691
sg2660
F220.14281600000001
sg2661
F0.0012999999999999999
sg2662
F-0.139483
sg2663
F11.086
ssS'220.0304'
p2692
(dp2693
g2652
F0.035000000000000003
sg2653
F0.031619849968018504
sg2654
g11
(g13
S'\x006\xcd;N\xd1\x91?'
tRp2694
sg2656
F-9.3902999999999999
sg2657
F0.5655396632769687
sg2658
g11
(g13
S'\xf2\xb0Pk\x9a\xb7*@'
tRp2695
sg2660
F220.03039999999999
sg2661
F0.0060000000000000001
sg2662
F-0.14829800000000001
sg2663
F13.375999999999999
ssS'220.057719'
p2696
(dp2697
g2652
F0.045999999999999999
sg2653
F0.043833947027389623
sg2654
g11
(g13
S'\x00\x87\x16\xd9\xce\xf7\xb3?'
tRp2698
sg2656
F-8.3828999999999994
sg2657
F1.2590261590964664
sg2658
g11
(g13
S'\x08\xac\x1cZd\xbb,@'
tRp2699
sg2660
F220.05771899999999
sg2661
F0.014
sg2662
F-0.17868500000000001
sg2663
F14.288
sssS'faintest_s2n'
p2700
F11.140929108781611
sS'HJD_mid'
p2701
g11
(g13
S'\x8f\xc9\xd6\xf0\x03\xbaBA'
tRp2702
sS'STOP_CPU'
p2703
S'2008-03-10 09:18:05.239693'
p2704
sS'targ_s2n'
p2705
F38.341710223649443
sS'sex_faintest'
p2706
(g11
(g13
S'L\xa6\nF%\x950@'
tRp2707
g11
(g13
S'\xe2\xff2}\xe6|\xba?'
tRp2708
tp2709
sS'N_dither'
p2710
I6
sS'HJD_start'
p2711
g11
(g13
S'\x99H\xcb\xf0\x03\xbaBA'
tRp2712
sS'2mass_abs_avg_dev'
p2713
S'0.06243'
p2714
sS'STRT_CPU'
p2715
S'2008-03-10 09:17:04.574299'
p2716
sS't_mid'
p2717
(F2376.5
F30.499999999999996
tp2718
sS'FileName'
p2719
g2646
sS'filter'
p2720
S'h'
sS'targ_mag'
p2721
(g11
(g13
S'.\xff!\xfd\xf6U.@'
tRp2722
F0.073522658493827595
tp2723
sS'Aperture'
p2724
I6
sS'HJD_stop'
p2725
g11
(g13
S'\x85J\xe2\xf0\x03\xbaBA'
tRp2726
sS'targ_flux'
p2727
(F1077.4449999999999
F28.101120000000002
tp2728
sS'zp'
p2729
(g11
(g13
S'r\xf9\x0f\xe9\xb7\xbf6@'
tRp2730
g11
(g13
S'\xd2\x84\x91\x96\x1d\xf3\x92?'
tRp2731
tp2732
sS'EXPTIME'
p2733
S'46.8'
p2734
ssS'j_long_GRB.108590.1_coadd_21-22.fits'
p2735
(dp2736
S'calib_stars'
p2737
(dp2738
S'220.049441'
p2739
(dp2740
S'2mass_e_mag'
p2741
F0.041000000000000002
sS'new_e_mag'
p2742
F0.036490539565451452
sS'delta_mag'
p2743
g11
(g13
S'\x80\xc2\x86\xa7W\xca\xb2?'
tRp2744
sS'inst_mag'
p2745
F-8.2660999999999998
sS'delta_pos'
p2746
F0.25763171150474562
sS'new_mag'
p2747
g11
(g13
S'\x1d8gDi\xef-@'
tRp2748
sS'ra'
p2749
F220.049441
sS'inst_e_mag'
p2750
F0.0111
sS'dec'
p2751
F-0.114549
sS'2mass_mag'
p2752
F15.041
ssS'220.041783'
p2753
(dp2754
g2741
F0.025999999999999999
sg2742
F0.025540952953595483
sg2743
g11
(g13
S'\x00"\xfd\xf6u\xe0\x9c?'
tRp2755
sg2745
F-10.493499999999999
sg2746
F0.33971111591012038
sg2747
g11
(g13
S'\x97\xff\x90~\xfbz)@'
tRp2756
sg2749
F220.04178300000001
sg2750
F0.0023
sg2751
F-0.200956
sg2752
F12.712
ssS'220.048875'
p2757
(dp2758
g2741
F0.057000000000000002
sg2742
F0.044387253550741086
sg2743
g11
(g13
S'\x80\x95\xd4\th"\xc4?'
tRp2759
sg2745
F-7.8760000000000003
sg2746
F0.32161216958714545
sg2747
g11
(g13
S'\xf2\x8eSt$\xb7.@'
tRp2760
sg2749
F220.04887500000001
sg2750
F0.015299999999999999
sg2751
F-0.118968
sg2752
F15.515000000000001
ssS'220.12869'
p2761
(dp2762
g2741
F0.033000000000000002
sg2742
F0.038460216819172742
sg2743
g11
(g13
S'\x00\xdc\xf9~j\xbc\xa4?'
tRp2763
sg2745
F-8.3482000000000003
sg2746
F0.79521553559060243
sg2747
g11
(g13
S'K7\x89A`\xc5-@'
tRp2764
sg2749
F220.12869000000001
sg2750
F0.012200000000000001
sg2751
F-0.110815
sg2752
F14.926
ssS'220.108846'
p2765
(dp2766
g2741
F0.023
sg2742
F0.026238435124408193
sg2743
g11
(g13
S'\x00\xd0\xb3Y\xf5\xb9\x9a?'
tRp2767
sg2745
F-9.8856000000000002
sg2746
F0.81253174558366725
sg2747
g11
(g13
S'\xa6y\xc7):\xb2*@'
tRp2768
sg2749
F220.108846
sg2750
F0.0033999999999999998
sg2751
F-0.143456
sg2752
F13.321999999999999
ssS'220.068892'
p2769
(dp2770
g2741
F0.024
sg2742
F0.025131738455144277
sg2743
g11
(g13
S'\x00b]\xdcF\x03\xa8?'
tRp2771
sg2745
F-11.585800000000001
sg2746
F0.3133549807446368
sg2747
g11
(g13
S"#(~\x8c\xb9K'@"
tRp2772
sg2749
F220.06889200000001
sg2750
F0.0012999999999999999
sg2751
F-0.13592099999999999
sg2752
F11.601000000000001
ssS'220.142816'
p2773
(dp2774
g2741
F0.024
sg2742
F0.025131738455144277
sg2743
g11
(g13
S'\x00\x00\x1a\xeb\xe26\x1a?'
tRp2775
sg2745
F-11.6066
sg2746
F1.152344410401632
sg2747
g11
(g13
S"\xa8\xa4N@\x13A'@"
tRp2776
sg2749
F220.14281600000001
sg2750
F0.0012999999999999999
sg2751
F-0.139483
sg2752
F11.627000000000001
ssS'220.04723'
p2777
(dp2778
g2741
F0.024
sg2742
F0.024993844797825279
sg2743
g11
(g13
S'\x00\xfa\\m\xc5\xfe\xa2?'
tRp2779
sg2745
F-12.704599999999999
sg2746
F0.2093650745912351
sg2747
g11
(g13
S'\x90\xa0\xf81\xe6\x0e%@'
tRp2780
sg2749
F220.04723000000001
sg2750
F0.00069999999999999999
sg2751
F-0.177985
sg2752
F10.492000000000001
ssS'220.150068'
p2781
(dp2782
g2741
F0.028000000000000001
sg2742
F0.025011123081096893
sg2743
g11
(g13
S'\x00\x00\x1c\xeb\xe26\x1a?'
tRp2783
sg2745
F-12.610799999999999
sg2746
F0.92099402625791704
sg2747
g11
(g13
S'W[\xb1\xbf\xec>%@'
tRp2784
sg2749
F220.150068
sg2750
F0.00080000000000000004
sg2751
F-0.17136299999999999
sg2752
F10.622999999999999
ssS'220.038025'
p2785
(dp2786
g2741
F0.043999999999999997
sg2742
F0.037554710460577082
sg2743
g11
(g13
S'\x00\xa4\xdf\xbe\x0e\x9c\xa3?'
tRp2787
sg2745
F-8.1983999999999995
sg2746
F0.44073538857825945
sg2747
g11
(g13
S'\xfc\x18s\xd7\x12\x12.@'
tRp2788
sg2749
F220.038025
sg2750
F0.0117
sg2751
F-0.207151
sg2752
F14.997
ssS'220.0304'
p2789
(dp2790
g2741
F0.028000000000000001
sg2742
F0.027271807380109182
sg2743
g11
(g13
S'\x00\x10\xce\x19Q\xda{?'
tRp2791
sg2745
F-9.4075000000000006
sg2746
F0.1815237622136103
sg2747
g11
(g13
S'\x0f\xe9\xb7\xaf\x03\xa7+@'
tRp2792
sg2749
F220.03039999999999
sg2750
F0.0045999999999999999
sg2751
F-0.14829800000000001
sg2752
F13.833
ssS'220.057719'
p2793
(dp2794
g2741
F0.047
sg2742
F0.036842424971461604
sg2743
g11
(g13
S'\x00\xf7\x06_\x98L\xa5?'
tRp2795
sg2745
F-8.2453000000000003
sg2746
F0.61380964800375382
sg2747
g11
(g13
S'\x98\xbb\x96\x90\x0f\xfa-@'
tRp2796
sg2749
F220.05771899999999
sg2750
F0.011299999999999999
sg2751
F-0.17868500000000001
sg2752
F15.029999999999999
sssS'faintest_s2n'
p2797
F10.967259354940754
sS'HJD_mid'
p2798
g11
(g13
S'\x8f\xc9\xd6\xf0\x03\xbaBA'
tRp2799
sS'2mass_abs_avg_dev'
p2800
S'0.0413666666667'
p2801
sS'targ_s2n'
p2802
F51.610879983748532
sS'sex_faintest'
p2803
(g11
(g13
S'\x11\xa5\xbd\xc1\x1761@'
tRp2804
g11
(g13
S'\xebh\x05\x0ec\x07\xbc?'
tRp2805
tp2806
sS'N_dither'
p2807
I6
sS'HJD_start'
p2808
g11
(g13
S'\x99H\xcb\xf0\x03\xbaBA'
tRp2809
sS'STOP_CPU'
p2810
S'2008-03-10 09:18:05.239693'
p2811
sS'STRT_CPU'
p2812
S'2008-03-10 09:17:04.574299'
p2813
sS't_mid'
p2814
(F2376.5
F30.499999999999996
tp2815
sS'FileName'
p2816
g2735
sS'filter'
p2817
S'j'
sS'targ_mag'
p2818
(g11
(g13
S'\xeeZB>\xe8y/@'
tRp2819
F0.056231929344259371
tp2820
sS'Aperture'
p2821
I6
sS'HJD_stop'
p2822
g11
(g13
S'\x85J\xe2\xf0\x03\xbaBA'
tRp2823
sS'targ_flux'
p2824
(F995.92070000000001
F19.296720000000001
tp2825
sS'zp'
p2826
(g11
(g13
S'@\x13a\xc3\xd3;7@'
tRp2827
g11
(g13
S'\x94\xf2\xe7\t_\xd9\x8a?'
tRp2828
tp2829
sS'EXPTIME'
p2830
S'46.8'
p2831
ssS'h_long_GRB.108590.1_coadd_5-6.fits'
p2832
(dp2833
S'calib_stars'
p2834
(dp2835
S'220.049441'
p2836
(dp2837
S'2mass_e_mag'
p2838
F0.058999999999999997
sS'new_e_mag'
p2839
F0.050492887380630722
sS'delta_mag'
p2840
g11
(g13
S'\x00pz\xa5,C|?'
tRp2841
sS'inst_mag'
p2842
F-8.0884999999999998
sS'delta_pos'
p2843
F0.1684874215401741
sS'new_mag'
p2844
g11
(g13
S'\xa6\xe8H.\xffA-@'
tRp2845
sS'ra'
p2846
F220.049441
sS'inst_e_mag'
p2847
F0.0177
sS'dec'
p2848
F-0.114549
sS'2mass_mag'
p2849
F14.622
ssS'220.041783'
p2850
(dp2851
g2838
F0.025999999999999999
sg2839
F0.02816776306406062
sg2840
g11
(g13
S'\x00P\x84\rO\xaf\x94?'
tRp2852
sg2842
F-10.538600000000001
sg2843
F0.88369714948179023
sg2844
g11
(g13
S'\xb1\x0cq\xac\x8b[(@'
tRp2853
sg2846
F220.04178300000001
sg2847
F0.0028999999999999998
sg2848
F-0.200956
sg2849
F12.199
ssS'220.048875'
p2854
(dp2855
g2838
F0.066000000000000003
sg2839
F0.050897375924826002
sg2840
g11
(g13
S'\xc0\xc8\x07=\x9bU\xcf?'
tRp2856
sg2842
F-8.0812000000000008
sg2843
F0.22988279930018618
sg2844
g11
(g13
S'-n\xa3\x01\xbcE-@'
tRp2857
sg2846
F220.04887500000001
sg2847
F0.017899999999999999
sg2848
F-0.118968
sg2849
F14.881
ssS'220.12869'
p2858
(dp2859
g2838
F0.068000000000000005
sg2839
F0.049687942964395874
sg2840
g11
(g13
S'\x00\x00\x00\x00\x00\x00\xe0<'
tRp2860
sg2842
F-8.1183999999999994
sg2843
F1.4743151994992691
sg2844
g11
(g13
S'\xa5\x9b\xc4 \xb02-@'
tRp2861
sg2846
F220.12869000000001
sg2847
F0.017299999999999999
sg2848
F-0.110815
sg2849
F14.599
ssS'220.108846'
p2862
(dp2863
g2838
F0.029000000000000001
sg2839
F0.028854650856197477
sg2840
g11
(g13
S'\x00x\x8a\x8e\xe4\xf2\x7f?'
tRp2864
sg2842
F-9.9491999999999994
sg2843
F1.4078831701649244
sg2844
g11
(g13
S'\x0b\x93\xa9\x82Q\x89)@'
tRp2865
sg2846
F220.108846
sg2847
F0.0038999999999999998
sg2848
F-0.143456
sg2849
F12.776
ssS'220.068892'
p2866
(dp2867
g2838
F0.027
sg2839
F0.027500379561618014
sg2840
g11
(g13
S'\x00\xd0_vO\x1ef?'
tRp2868
sg2842
F-11.450699999999999
sg2843
F0.51022438870238074
sg2844
g11
(g13
S'\xb7\xaf\x03\xe7\x8c\x88&@'
tRp2869
sg2846
F220.06889200000001
sg2847
F0.0014
sg2848
F-0.13592099999999999
sg2849
F11.263999999999999
ssS'220.142816'
p2870
(dp2871
g2838
F0.024
sg2839
F0.027500379561618014
sg2840
g11
(g13
S'\x00\x14\x1d\xc9\xe5?\xb4?'
tRp2872
sg2842
F-11.552300000000001
sg2843
F2.0984687209200446
sg2844
g11
(g13
S'\xa1#\xb9\xfc\x87T&@'
tRp2873
sg2846
F220.14281600000001
sg2847
F0.0014
sg2848
F-0.139483
sg2849
F11.086
ssS'220.150068'
p2874
(dp2875
g2838
F0.021000000000000001
sg2839
F0.027361792266462695
sg2840
g11
(g13
S'\x80r\xd7\x12\xf2A\xbf?'
tRp2876
sg2842
F-12.4213
sg2843
F2.3395737504121668
sg2844
g11
(g13
S'\xf1\xb0Pk\x9a\x97$@'
tRp2877
sg2846
F220.150068
sg2847
F0.00080000000000000004
sg2848
F-0.17136299999999999
sg2849
F10.173999999999999
ssS'220.038025'
p2878
(dp2879
g2838
F0.056000000000000001
sg2839
F0.047504059574241204
sg2840
g11
(g13
S'\x00\x1b/\xdd$\x06\xb1?'
tRp2880
sg2842
F-8.1959
sg2843
F1.0034443470382481
sg2844
g11
(g13
S']\xbaI\x0c\x02\x0b-@'
tRp2881
sg2846
F220.038025
sg2847
F0.016199999999999999
sg2848
F-0.207151
sg2849
F14.587999999999999
ssS'220.057719'
p2882
(dp2883
g2838
F0.045999999999999999
sg2839
F0.042917545083952062
sg2840
g11
(g13
S'\x00\x0fX9\xb4\xc8\xa6?'
tRp2884
sg2842
F-8.3849
sg2843
F1.0217486449133999
sg2844
g11
(g13
S'\t\xd7\xa3p=\xaa,@'
tRp2885
sg2846
F220.05771899999999
sg2847
F0.0138
sg2848
F-0.17868500000000001
sg2849
F14.288
ssS'220.0304'
p2886
(dp2887
g2838
F0.035000000000000003
sg2839
F0.033790348859297943
sg2840
g11
(g13
S'\x00P\x1e\x16jM\xa3?'
tRp2888
sg2842
F-9.3790999999999993
sg2843
F0.44553204063644336
sg2844
g11
(g13
S'=yX\xa85\xad*@'
tRp2889
sg2846
F220.03039999999999
sg2847
F0.0083000000000000001
sg2848
F-0.14829800000000001
sg2849
F13.375999999999999
sssS'faintest_s2n'
p2890
F10.998858490017748
sS'HJD_mid'
p2891
g11
(g13
S'\xa2\xd6\xfa\xef\x03\xbaBA'
tRp2892
sS'STOP_CPU'
p2893
S'2008-03-10 09:08:25.329263'
p2894
sS'targ_s2n'
p2895
F48.537969550354639
sS'sex_faintest'
p2896
(g11
(g13
S'e\x88c]\xdc\xc60@'
tRp2897
g11
(g13
S'\xa1\xfb\xe0l\xa5&\xc6?'
tRp2898
tp2899
sS'N_dither'
p2900
I6
sS'HJD_start'
p2901
g11
(g13
S'pQ\xef\xef\x03\xbaBA'
tRp2902
sS'2mass_abs_avg_dev'
p2903
S'0.0574818181818'
p2904
sS'STRT_CPU'
p2905
S'2008-03-10 09:07:24.576557'
p2906
sS't_mid'
p2907
(F1796.5
F30.499999999999996
tp2908
sS'FileName'
p2909
g2832
sS'filter'
p2910
S'h'
sS'targ_mag'
p2911
(g11
(g13
S'\x80sF\x94\xf6\xc6-@'
tRp2912
F0.060291947024731729
tp2913
sS'Aperture'
p2914
I6
sS'HJD_stop'
p2915
g11
(g13
S'\xd5[\x06\xf0\x03\xbaBA'
tRp2916
sS'targ_flux'
p2917
(F1353.723
F27.889980000000001
tp2918
sS'zp'
p2919
(g11
(g13
S'\x80&\xc2\x86\xa7\xb76@'
tRp2920
g11
(g13
S'\x8b\x05\xd8\x02T\x96\x91?'
tRp2921
tp2922
sS'EXPTIME'
p2923
S'46.8'
p2924
ssS'k_long_GRB.999.999_deep_coadd.fits'
p2925
(dp2926
S'calib_stars'
p2927
(dp2928
S'220.049441'
p2929
(dp2930
S'2mass_e_mag'
p2931
F0.089999999999999997
sS'new_e_mag'
p2932
F0.036702358745726409
sS'delta_mag'
p2933
g11
(g13
S'\x00.!\x1f\xf4l\xbe?'
tRp2934
sS'inst_mag'
p2935
F-6.8036000000000003
sS'delta_pos'
p2936
F0.19646917751913523
sS'new_mag'
p2937
g11
(g13
S'V\xc1\xa8\xa4N\x10-@'
tRp2938
sS'ra'
p2939
F220.049441
sS'inst_e_mag'
p2940
F0.0043
sS'dec'
p2941
F-0.114549
sS'2mass_mag'
p2942
F14.413
ssS'220.106263'
p2943
(dp2944
g2931
F0.019
sg2932
F0.035222412431575437
sg2933
g11
(g13
S' x\x0b$(~\xda?'
tRp2945
sg2935
F-11.6675
sg2936
F0.16597359683123677
sg2937
g11
(g13
S'\xf6\xb9\xda\x8a\xfdU#@'
tRp2946
sg2939
F220.10626300000001
sg2940
F0.0001
sg2941
F-0.22015399999999999
sg2942
F9.2539999999999996
ssS'220.041783'
p2947
(dp2948
g2931
F0.027
sg2932
F0.035242030836772159
sg2933
g11
(g13
S'\x80G\x03x\x0b$\xb0?'
tRp2949
sg2935
F-9.2053999999999991
sg2936
F0.083948832304457779
sg2937
g11
(g13
S'\x8b\xb0\xe1\xe9\x95B(@'
tRp2950
sg2939
F220.04178300000001
sg2940
F0.00050000000000000001
sg2941
F-0.200956
sg2942
F12.067
ssS'220.048875'
p2951
(dp2952
g2931
F0.104
sg2932
F0.036383171075374941
sg2933
g11
(g13
S'\xc0\x9a\xe6\x1d\xa7\xe8\xc4?'
tRp2953
sg2935
F-6.8558000000000003
sg2936
F0.30492071275166333
sg2937
g11
(g13
S'\x85\rO\xaf\x94\xf5,@'
tRp2954
sg2939
F220.04887500000001
sg2940
F0.0038
sg2941
F-0.118968
sg2942
F14.643000000000001
ssS'220.000918'
p2955
(dp2956
g2931
F0.058000000000000003
sg2932
F0.037287777320457169
sg2933
g11
(g13
S'\x00<\x92\xcb\x7fH\x9f?'
tRp2957
sg2935
F-7.2199
sg2936
F0.071621788323935537
sg2937
g11
(g13
S'\n\x1b\x9e^);,@'
tRp2958
sg2939
F220.00091800000001
sg2940
F0.0051000000000000004
sg2941
F-0.24986
sg2942
F14.085000000000001
ssS'220.108846'
p2959
(dp2960
g2931
F0.029000000000000001
sg2932
F0.03528776469968025
sg2933
g11
(g13
S'\x00`\x0c\x02+\x87f?'
tRp2961
sg2935
F-8.6616999999999997
sg2936
F0.18939370696227761
sg2937
g11
(g13
S'*\\\x8f\xc2\xf5X)@'
tRp2962
sg2939
F220.108846
sg2940
F0.00089999999999999998
sg2941
F-0.143456
sg2942
F12.670999999999999
ssS'220.068892'
p2963
(dp2964
g2931
F0.021000000000000001
sg2932
F0.035228953113880634
sg2933
g11
(g13
S'\x00pz\xa5,Cl?'
tRp2965
sg2935
F-10.1119
sg2936
F0.10363954036689219
sg2937
g11
(g13
S'\xa7\nF%ur&@'
tRp2966
sg2939
F220.06889200000001
sg2940
F0.00029999999999999997
sg2941
F-0.13592099999999999
sg2942
F11.227
ssS'220.121644'
p2967
(dp2968
g2931
F0.041000000000000002
sg2932
F0.035615153200568996
sg2933
g11
(g13
S'\x00t\x93\x18\x04V\xae?'
tRp2969
sg2935
F-7.7706999999999997
sg2936
F0.18776561473675513
sg2937
g11
(g13
S'\xff\xd4x\xe9&!+@'
tRp2970
sg2939
F220.121644
sg2940
F0.0022000000000000001
sg2941
F-0.236291
sg2942
F13.624000000000001
ssS'220.038025'
p2971
(dp2972
g2931
F0.10199999999999999
sg2932
F0.036101068370617509
sg2933
g11
(g13
S"\x00R'\xa0\x89\xb0\xc5?"
tRp2973
sg2935
F-6.8569000000000004
sg2936
F0.19177299363513253
sg2937
g11
(g13
S'j\x00o\x81\x04\xf5,@'
tRp2974
sg2939
F220.038025
sg2940
F0.0033
sg2941
F-0.207151
sg2942
F14.648
ssS'220.04723'
p2975
(dp2976
g2931
F0.024
sg2932
F0.035222412431575437
sg2933
g11
(g13
S'\x00fDio\xf0\xa5?'
tRp2977
sg2935
F-11.564299999999999
sg2936
F0.016834719061987764
sg2937
g11
(g13
S'\xee\x9e<,\xd4\x8a#@'
tRp2978
sg2939
F220.04723000000001
sg2940
F0.0001
sg2941
F-0.177985
sg2942
F9.8140000000000001
ssS'220.062332'
p2979
(dp2980
g2931
F0.097000000000000003
sg2932
F0.039127002664400452
sg2933
g11
(g13
S'\x00 \xa7\xe8H.\x9f?'
tRp2981
sg2935
F-6.6130000000000004
sg2936
F0.10944725474799948
sg2937
g11
(g13
S'\x8c\xfde\xf7\xe4q-@'
tRp2982
sg2939
F220.062332
sg2940
F0.0071000000000000004
sg2941
F-0.24429600000000001
sg2942
F14.692
ssS'220.057719'
p2983
(dp2984
g2931
F0.072999999999999995
sg2932
F0.035728990155054756
sg2933
g11
(g13
S'\x00l\x9aw\x9c\xa2\xa3?'
tRp2985
sg2935
F-7.1990999999999996
sg2936
F0.35431651579689721
sg2937
g11
(g13
S'\x85\x9e\xcd\xaa\xcfE,@'
tRp2986
sg2939
F220.05771899999999
sg2940
F0.0025000000000000001
sg2941
F-0.17868500000000001
sg2942
F14.098000000000001
ssS'220.021296'
p2987
(dp2988
g2931
F0.105
sg2932
F0.036506447889379755
sg2933
g11
(g13
S'\x00\xc5\xb1.n\xa3\xa1?'
tRp2989
sg2935
F-6.6920000000000002
sg2936
F0.18392781280290704
sg2937
g11
(g13
S'\xf08EGrI-@'
tRp2990
sg2939
F220.02129600000001
sg2940
F0.0040000000000000001
sg2941
F-0.16963500000000001
sg2942
F14.609
ssS'220.036427'
p2991
(dp2992
g2931
F0.076999999999999999
sg2932
F0.036506447889379755
sg2933
g11
(g13
S'\x00@\x0c\x02+\x87f?'
tRp2993
sg2935
F-6.9522000000000004
sg2936
F0.38382913338924812
sg2937
g11
(g13
S'Nb\x10X9\xc4,@'
tRp2994
sg2939
F220.036427
sg2940
F0.0040000000000000001
sg2941
F-0.11174000000000001
sg2942
F14.385999999999999
ssS'220.0304'
p2995
(dp2996
g2931
F0.037999999999999999
sg2932
F0.035339144549635035
sg2933
g11
(g13
S'\x804\xef8EG\xba?'
tRp2997
sg2935
F-8.1081000000000003
sg2936
F0.0061471702530086041
sg2937
g11
(g13
S'\xc0}\x1d8gt*@'
tRp2998
sg2939
F220.03039999999999
sg2940
F0.0011999999999999999
sg2941
F-0.14829800000000001
sg2942
F13.33
sssS'faintest_s2n'
p2999
F13.950023470748206
sS'HJD_mid'
p3000
g11
(g13
S'\x9b\xa7{t\x04\xbaBA'
tRp3001
sS'STOP_CPU'
p3002
S'2008-03-11 13:04:10.589444'
p3003
sS'targ_s2n'
p3004
F10.089350482895682
sS'sex_faintest'
p3005
(g11
(g13
S'~\xae\xb6b\x7f\x812@'
tRp3006
g11
(g13
S'\xb4A\xefH\x07]\xc0?'
tRp3007
tp3008
sS'N_dither'
p3009
I1
sS'HJD_start'
p3010
g11
(g13
S'?\xe4\xfcc\x04\xbaBA'
tRp3011
sS'2mass_abs_avg_dev'
p3012
S'0.0850766666667'
p3013
sS'STRT_CPU'
p3014
S'2008-03-11 06:53:01.742908'
p3015
sS't_mid'
p3016
(F91237.5
F11134.500000000002
tp3017
sS'FileName'
p3018
S'k_long_GRB.999.999_deep_coadd.fits'
p3019
sS'filter'
p3020
S'k'
sS'targ_mag'
p3021
(g11
(g13
S'\x93:\x01M\x84U2@'
tRp3022
F0.26063088523331224
tp3023
sS'Aperture'
p3024
F3
sS'HJD_stop'
p3025
g11
(g13
S'\xf7j\xfa\x84\x04\xbaBA'
tRp3026
sS'targ_flux'
p3027
(F15.86961
F1.5729070000000001
tp3028
sS'zp'
p3029
(g11
(g13
S'vq\x1b\r\xe0U5@'
tRp3030
g11
(g13
S'\xe4\xa9\xf5I\xae\xe5\x92?'
tRp3031
tp3032
sS'EXPTIME'
p3033
S'14180.4'
p3034
ssS'j_long_GRB.108590.1_coadd_17-18.fits'
p3035
(dp3036
S'calib_stars'
p3037
(dp3038
S'220.049441'
p3039
(dp3040
S'2mass_e_mag'
p3041
F0.041000000000000002
sS'new_e_mag'
p3042
F0.036623881293381989
sS'delta_mag'
p3043
g11
(g13
S'\x00=,\xd4\x9a\xe6\xad?'
tRp3044
sS'inst_mag'
p3045
F-8.2553999999999998
sS'delta_pos'
p3046
F0.57206677425446861
sS'new_mag'
p3047
g11
(g13
S'e\x19\xe2X\x17\xf7-@'
tRp3048
sS'ra'
p3049
F220.049441
sS'inst_e_mag'
p3050
F0.010999999999999999
sS'dec'
p3051
F-0.114549
sS'2mass_mag'
p3052
F15.041
ssS'220.041783'
p3053
(dp3054
g3041
F0.025999999999999999
sg3042
F0.025977280092260149
sg3043
g11
(g13
S'\x00\xc0\xb8\x8d\x06\xf0F?'
tRp3055
sg3045
F-10.5253
sg3046
F0.28501598662417493
sg3047
g11
(g13
S'\xe9\xb7\xaf\x03\xe7l)@'
tRp3056
sg3049
F220.04178300000001
sg3050
F0.0023
sg3051
F-0.200956
sg3052
F12.712
ssS'220.048875'
p3057
(dp3058
g3041
F0.057000000000000002
sg3042
F0.044245748733542027
sg3043
g11
(g13
S'\x80O\x1e\x16jM\xc3?'
tRp3059
sg3045
F-7.8738000000000001
sg3046
F0.73777568080043243
sg3047
g11
(g13
S'\nh"lx\xba.@'
tRp3060
sg3049
F220.04887500000001
sg3050
F0.015100000000000001
sg3051
F-0.118968
sg3052
F15.515000000000001
ssS'220.12869'
p3061
(dp3062
g3041
F0.033000000000000002
sg3042
F0.038210237908075574
sg3043
g11
(g13
S'\x00\xdeq\x8a\x8e\xe4\xb2?'
tRp3063
sg3045
F-8.2382000000000009
sg3046
F0.7726567535851453
sg3047
g11
(g13
S'\xe3\x14\x1d\xc9\xe5\xff-@'
tRp3064
sg3049
F220.12869000000001
sg3050
F0.011900000000000001
sg3051
F-0.110815
sg3052
F14.926
ssS'220.108846'
p3065
(dp3066
g3041
F0.023
sg3042
F0.026663350895784563
sg3043
g11
(g13
S'\x00\xa9\x13\xd0D\xd8\xa0?'
tRp3067
sg3045
F-9.8831000000000007
sg3046
F0.85738702469058459
sg3047
g11
(g13
S'g\xb3\xeas\xb5\xb5*@'
tRp3068
sg3049
F220.108846
sg3050
F0.0033999999999999998
sg3051
F-0.143456
sg3052
F13.321999999999999
ssS'220.068892'
p3069
(dp3070
g3041
F0.024
sg3042
F0.025546880063752119
sg3043
g11
(g13
S'\x00\x00\x00\x00\x00\x00\xe0<'
tRp3071
sg3045
F-11.637
sg3046
F0.60752891326440406
sg3047
g11
(g13
S"\xc0\xca\xa1E\xb63'@"
tRp3072
sg3049
F220.06889200000001
sg3050
F0.0011999999999999999
sg3051
F-0.13592099999999999
sg3052
F11.601000000000001
ssS'220.142816'
p3073
(dp3074
g3041
F0.024
sg3042
F0.025546880063752119
sg3043
g11
(g13
S'\x00\x08V\x0e-\xb2\x8d?'
tRp3075
sg3045
F-11.625500000000001
sg3046
F1.1030788285979467
sg3047
g11
(g13
S"\x99\x99\x99\x99\x999'@"
tRp3076
sg3049
F220.14281600000001
sg3050
F0.0011999999999999999
sg3051
F-0.139483
sg3052
F11.627000000000001
ssS'220.150068'
p3077
(dp3078
g3041
F0.028000000000000001
sg3042
F0.025456533169144133
sg3043
g11
(g13
S'\x00n\xa3\x01\xbc\x05\x92?'
tRp3079
sg3045
F-12.5974
sg3046
F1.065878375402203
sg3047
g11
(g13
S'\x9c\xa2#\xb9\xfcG%@'
tRp3080
sg3049
F220.150068
sg3050
F0.00080000000000000004
sg3051
F-0.17136299999999999
sg3052
F10.622999999999999
ssS'220.038025'
p3081
(dp3082
g3041
F0.043999999999999997
sg3042
F0.036623881293381989
sg3043
g11
(g13
S'\x00L\xc8\x07=\x9b\x95?'
tRp3083
sg3045
F-8.2621000000000002
sg3046
F0.36400903489057729
sg3047
g11
(g13
S'2U0*\xa9\xf3-@'
tRp3084
sg3049
F220.038025
sg3050
F0.010999999999999999
sg3051
F-0.207151
sg3052
F14.997
ssS'220.0304'
p3085
(dp3086
g3041
F0.028000000000000001
sg3042
F0.027777456344880384
sg3043
g11
(g13
S'\x00\xa0\x01\xbc\x05\x12t?'
tRp3087
sg3045
F-9.4001000000000001
sg3046
F0.18364510377800072
sg3047
g11
(g13
S'\x05\xa3\x92:\x01\xad+@'
tRp3088
sg3049
F220.03039999999999
sg3050
F0.0047000000000000002
sg3051
F-0.14829800000000001
sg3052
F13.833
ssS'220.057719'
p3089
(dp3090
g3041
F0.047
sg3042
F0.036797259150536409
sg3043
g11
(g13
S'\x00/\xdd$\x06\x81\xa5?'
tRp3091
sg3045
F-8.25
sg3046
F0.4608840640976653
sg3047
g11
(g13
S'`\xe5\xd0"\xdb\xf9-@'
tRp3092
sg3049
F220.05771899999999
sg3050
F0.0111
sg3051
F-0.17868500000000001
sg3052
F15.029999999999999
sssS'faintest_s2n'
p3093
F7.9850469316419987
sS'HJD_mid'
p3094
g11
(g13
S'\x96~\x9f\xf0\x03\xbaBA'
tRp3095
sS'2mass_abs_avg_dev'
p3096
S'0.0378818181818'
p3097
sS'targ_s2n'
p3098
F50.072316899317521
sS'sex_faintest'
p3099
(g11
(g13
S'\x0b\xb5\xa6y\xc7\xd91@'
tRp3100
g11
(g13
S'\x1f\x97o\xd4\xcc\x7f\xc1?'
tRp3101
tp3102
sS'N_dither'
p3103
I6
sS'HJD_start'
p3104
g11
(g13
S'\xec\x01\x94\xf0\x03\xbaBA'
tRp3105
sS'STOP_CPU'
p3106
S'2008-03-10 09:15:39.401017'
p3107
sS'STRT_CPU'
p3108
S'2008-03-10 09:14:38.824137'
p3109
sS't_mid'
p3110
(F2230.5
F30.499999999999996
tp3111
sS'FileName'
p3112
g3035
sS'filter'
p3113
S'j'
sS'targ_mag'
p3114
(g11
(g13
S'h\xb3\xeas\xb5\x95/@'
tRp3115
F0.057936819734877888
tp3116
sS'Aperture'
p3117
I6
sS'HJD_stop'
p3118
g11
(g13
S'?\xfb\xaa\xf0\x03\xbaBA'
tRp3119
sS'targ_flux'
p3120
(F951.15170000000001
F18.995560000000001
tp3121
sS'zp'
p3122
(g11
(g13
S'\xb0rh\x91\xed<7@'
tRp3123
g11
(g13
S'\xcc\xe5\x0c\xde\x0b\x8d\x8c?'
tRp3124
tp3125
sS'EXPTIME'
p3126
S'46.8'
p3127
ssS'k_long_GRB.108590.1_coadd_17-18.fits'
p3128
(dp3129
S'calib_stars'
p3130
(dp3131
S'220.049441'
p3132
(dp3133
S'2mass_e_mag'
p3134
F0.089999999999999997
sS'new_e_mag'
p3135
F0.10108289766325461
sS'delta_mag'
p3136
g11
(g13
S'\x80K7\x89A`\xc5?'
tRp3137
sS'inst_mag'
p3138
F-7.6585999999999999
sS'delta_pos'
p3139
F1.8908444893709759
sS'new_mag'
p3140
g11
(g13
S'(\\\x8f\xc2\xf5(-@'
tRp3141
sS'ra'
p3142
F220.049441
sS'inst_e_mag'
p3143
F0.039800000000000002
sS'dec'
p3144
F-0.114549
sS'2mass_mag'
p3145
F14.413
ssS'220.041783'
p3146
(dp3147
g3134
F0.027
sg3135
F0.034715924299952031
sg3136
g11
(g13
S'\x00\xa4E\xb6\xf3\xfd\x94?'
tRp3148
sg3138
F-10.1921
sg3139
F2.1832387177011601
sg3140
g11
(g13
S'*\x87\x16\xd9\xce\x17(@'
tRp3149
sg3142
F220.04178300000001
sg3143
F0.0044000000000000003
sg3144
F-0.200956
sg3145
F12.067
ssS'220.048875'
p3150
(dp3151
g3134
F0.104
sg3135
F0.092512927745261625
sg3136
g11
(g13
S'@\xca\xc3B\xadi\xc6?'
tRp3152
sg3138
F-7.7706999999999997
sg3139
F1.7527413941108343
sg3140
g11
(g13
S'\xc7\x98\xbb\x96\x90\xef,@'
tRp3153
sg3142
F220.04887500000001
sg3143
F0.035999999999999997
sg3144
F-0.118968
sg3145
F14.643000000000001
ssS'220.12869'
p3154
(dp3155
g3134
F0.087999999999999995
sg3135
F0.097913979594335759
sg3136
g11
(g13
S'\x00$u\x02\x9a\x08\x8b?'
tRp3156
sg3138
F-7.6984000000000004
sg3139
F0.85171589424766547
sg3140
g11
(g13
S'0\x99*\x18\x95\x14-@'
tRp3157
sg3142
F220.12869000000001
sg3143
F0.038399999999999997
sg3144
F-0.110815
sg3145
F14.526999999999999
ssS'220.108846'
p3158
(dp3159
g3134
F0.029000000000000001
sg3135
F0.037652115478416341
sg3136
g11
(g13
S'\x00\xe4\xae%\xe4\x83\x8e?'
tRp3160
sg3138
F-9.5526999999999997
sg3139
F0.61834849712454443
sg3140
g11
(g13
S'\x1d\xa7\xe8H._)@'
tRp3161
sg3142
F220.108846
sg3143
F0.0074999999999999997
sg3144
F-0.143456
sg3145
F12.670999999999999
ssS'220.068892'
p3162
(dp3163
g3134
F0.021000000000000001
sg3135
F0.033568726517400088
sg3136
g11
(g13
S'\x00\x80\x04\xc5\x8f1\xa7?'
tRp3164
sg3138
F-10.9663
sg3139
F1.1829230533997306
sg3140
g11
(g13
S'\xcef\xd5\xe7j\x8b&@'
tRp3165
sg3142
F220.06889200000001
sg3143
F0.0023999999999999998
sg3144
F-0.13592099999999999
sg3145
F11.227
ssS'220.142816'
p3166
(dp3167
g3134
F0.021000000000000001
sg3135
F0.033452703926588646
sg3136
g11
(g13
S'\x00(u\x02\x9a\x08\x8b?'
tRp3168
sg3138
F-11.184799999999999
sg3139
F0.53034263811325677
sg3140
g11
(g13
S'\xb2\x0cq\xac\x8b\x1b&@'
tRp3169
sg3142
F220.14281600000001
sg3143
F0.0020999999999999999
sg3144
F-0.139483
sg3145
F11.067
ssS'220.04723'
p3170
(dp3171
g3134
F0.024
sg3135
F0.033141324656688058
sg3136
g11
(g13
S'\x00\xbet\x93\x18\x04\x96?'
tRp3172
sg3138
F-12.446099999999999
sg3139
F1.7012703204020576
sg3140
g11
(g13
S'\xf5(\\\x8f\xc2\x95#@'
tRp3173
sg3142
F220.04723000000001
sg3143
F0.00089999999999999998
sg3144
F-0.177985
sg3145
F9.8140000000000001
ssS'220.150068'
p3174
(dp3175
g3134
F0.023
sg3135
F0.033196026870696435
sg3136
g11
(g13
S'\x00b\x7f\xd9=y\xb8?'
tRp3176
sg3138
F-12.035
sg3139
F1.7492453170275275
sg3140
g11
(g13
S'b\xeeZB>h$@'
tRp3177
sg3142
F220.150068
sg3143
F0.0011999999999999999
sg3144
F-0.17136299999999999
sg3145
F10.108000000000001
ssS'220.038025'
p3178
(dp3179
g3134
F0.10199999999999999
sg3135
F0.10040279776978329
sg3136
g11
(g13
S'\x00\xddF\x03x\x0b\xb4?'
tRp3180
sg3138
F-7.6688999999999998
sg3139
F2.1462473226444816
sg3140
g11
(g13
S'\xf8\x0f\xe9\xb7\xaf#-@'
tRp3181
sg3142
F220.038025
sg3143
F0.0395
sg3144
F-0.207151
sg3145
F14.648
ssS'220.057719'
p3182
(dp3183
g3134
F0.072999999999999995
sg3135
F0.074251412107784173
sg3136
g11
(g13
S'\x80\xa1\xb47\xf8\xc2\xb4?'
tRp3184
sg3138
F-8.0594999999999999
sg3139
F1.7772074127193773
sg3140
g11
(g13
S'\\m\xc5\xfe\xb2[,@'
tRp3185
sg3142
F220.05771899999999
sg3143
F0.027699999999999999
sg3144
F-0.17868500000000001
sg3145
F14.098000000000001
ssS'220.0304'
p3186
(dp3187
g3134
F0.037999999999999999
sg3135
F0.044650664048813425
sg3136
g11
(g13
S'\x00\x81H\xbf}\x1d\xa8?'
tRp3188
sg3138
F-8.9557000000000002
sg3139
F2.109809669249227
sg3140
g11
(g13
S'\xa8\x13\xd0D\xd8\x90*@'
tRp3189
sg3142
F220.03039999999999
sg3143
F0.012500000000000001
sg3144
F-0.14829800000000001
sg3145
F13.33
sssS'faintest_s2n'
p3190
F12.140264400742618
sS'HJD_mid'
p3191
g11
(g13
S'\x96~\x9f\xf0\x03\xbaBA'
tRp3192
sS'STOP_CPU'
p3193
S'2008-03-10 09:15:39.401017'
p3194
sS'targ_s2n'
p3195
F33.512808705785062
sS'sex_faintest'
p3196
(g11
(g13
S'\xbe\x9f\x1a/\xddD/@'
tRp3197
g11
(g13
S'W\xabf\x83\xb9z\xbb?'
tRp3198
tp3199
sS'N_dither'
p3200
I6
sS'HJD_start'
p3201
g11
(g13
S'\xec\x01\x94\xf0\x03\xbaBA'
tRp3202
sS'2mass_abs_avg_dev'
p3203
S'0.0644'
p3204
sS'STRT_CPU'
p3205
S'2008-03-10 09:14:38.824137'
p3206
sS't_mid'
p3207
(F2230.5
F30.499999999999996
tp3208
sS'FileName'
p3209
g3128
sS'filter'
p3210
S'k'
sS'targ_mag'
p3211
(g11
(g13
S'L\x84\rO\xaf\xb4,@'
tRp3212
F0.084500292307186711
tp3213
sS'Aperture'
p3214
I6
sS'HJD_stop'
p3215
g11
(g13
S'?\xfb\xaa\xf0\x03\xbaBA'
tRp3216
sS'targ_flux'
p3217
(F1426.4659999999999
F42.564799999999998
tp3218
sS'zp'
p3219
(g11
(g13
S'Z\xd3\xbc\xe3\x14=6@'
tRp3220
g11
(g13
S'\xe0FuC\xd3\xfa\x99?'
tRp3221
tp3222
sS'EXPTIME'
p3223
S'46.8'
p3224
ssS'h_long_GRB.108590.1_coadd_11-12.fits'
p3225
(dp3226
S'calib_stars'
p3227
(dp3228
S'220.049441'
p3229
(dp3230
S'2mass_e_mag'
p3231
F0.058999999999999997
sS'new_e_mag'
p3232
F0.044830597933901248
sS'delta_mag'
p3233
g11
(g13
S'\x00\xf3\x8eSt$\xb7?'
tRp3234
sS'inst_mag'
p3235
F-8.2119
sS'delta_pos'
p3236
F0.15281622920958335
sS'new_mag'
p3237
g11
(g13
S'r\x1b\r\xe0-\x10-@'
tRp3238
sS'ra'
p3239
F220.049441
sS'inst_e_mag'
p3240
F0.015100000000000001
sS'dec'
p3241
F-0.114549
sS'2mass_mag'
p3242
F14.622
ssS'220.041783'
p3243
(dp3244
g3231
F0.025999999999999999
sg3232
F0.027011525523581797
sg3233
g11
(g13
S'\x00\xd0o_\x07\xcey?'
tRp3245
sg3235
F-10.550800000000001
sg3236
F0.83559695183355798
sg3237
g11
(g13
S'\xdf\xe0\x0b\x93\xa9b(@'
tRp3246
sg3239
F220.04178300000001
sg3240
F0.0023999999999999998
sg3241
F-0.200956
sg3242
F12.199
ssS'220.048875'
p3247
(dp3248
g3231
F0.066000000000000003
sg3232
F0.047388337290003232
sg3233
g11
(g13
S'\x00\xd5x\xe9&1\xd0?'
tRp3249
sg3235
F-8.1155000000000008
sg3236
F0.2645426701408965
sg3237
g11
(g13
S'\xa8\xc6K7\x89A-@'
tRp3250
sg3239
F220.04887500000001
sg3240
F0.016400000000000001
sg3241
F-0.118968
sg3242
F14.881
ssS'220.12869'
p3251
(dp3252
g3231
F0.068000000000000005
sg3232
F0.046594043729978094
sg3233
g11
(g13
S'\x00`\xc3\xd3+ei?'
tRp3253
sg3235
F-8.1414000000000009
sg3236
F1.5775338472663307
sg3237
g11
(g13
S'\xdc\xd7\x81sF4-@'
tRp3254
sg3239
F220.12869000000001
sg3240
F0.016
sg3241
F-0.110815
sg3242
F14.599
ssS'220.108846'
p3255
(dp3256
g3231
F0.029000000000000001
sg3232
F0.027623006916538084
sg3233
g11
(g13
S'\x00\x1c\xc9\xe5?\xa4\xaf?'
tRp3257
sg3235
F-10.029299999999999
sg3236
F1.5309107598798262
sg3237
g11
(g13
S'>\x9bU\x9f\xabm)@'
tRp3258
sg3239
F220.108846
sg3240
F0.0033999999999999998
sg3241
F-0.143456
sg3242
F12.776
ssS'220.068892'
p3259
(dp3260
g3231
F0.027
sg3232
F0.026574034528296805
sg3233
g11
(g13
S'\x00\xc6 \xb0rh\x91?'
tRp3261
sg3235
F-11.4625
sg3236
F0.49430282409130027
sg3237
g11
(g13
S'\x1dZd;\xdf\x8f&@'
tRp3262
sg3239
F220.06889200000001
sg3240
F0.0012999999999999999
sg3241
F-0.13592099999999999
sg3242
F11.263999999999999
ssS'220.142816'
p3263
(dp3264
g3231
F0.024
sg3232
F0.026546926585032604
sg3233
g11
(g13
S'\x00\xec\x9e<,\xd4\x8a?'
tRp3265
sg3235
F-11.6706
sg3236
F2.2751382168196526
sg3237
g11
(g13
S'\xbe\xc1\x17&S%&@'
tRp3266
sg3239
F220.14281600000001
sg3240
F0.0011999999999999999
sg3241
F-0.139483
sg3242
F11.086
ssS'220.04723'
p3267
(dp3268
g3231
F0.027
sg3232
F0.026478491481032505
sg3233
g11
(g13
S'\x00\xdfq\x8a\x8e\xe4\xa2?'
tRp3269
sg3235
F-12.7776
sg3236
F0.46870913496238337
sg3237
g11
(g13
S'\xaei\xdeq\x8a\xee#@'
tRp3270
sg3239
F220.04723000000001
sg3240
F0.00089999999999999998
sg3241
F-0.177985
sg3242
F9.9290000000000003
ssS'220.150068'
p3271
(dp3272
g3231
F0.021000000000000001
sg3232
F0.026499149252591316
sg3233
g11
(g13
S'\xc0*\x18\x95\xd4\t\xc0?'
tRp3273
sg3235
F-12.4442
sg3236
F2.4078925698298472
sg3237
g11
(g13
S'\xb7b\x7f\xd9=\x99$@'
tRp3274
sg3239
F220.150068
sg3240
F0.001
sg3241
F-0.17136299999999999
sg3242
F10.173999999999999
ssS'220.038025'
p3275
(dp3276
g3231
F0.056000000000000001
sg3232
F0.046002470706594779
sg3233
g11
(g13
S'\x00P\xc3\xd3+ei?'
tRp3277
sg3235
F-8.1585999999999999
sg3236
F0.80897788165561535
sg3237
g11
(g13
S'^\xdcF\x03x+-@'
tRp3278
sg3239
F220.038025
sg3240
F0.015699999999999999
sg3241
F-0.207151
sg3242
F14.587999999999999
ssS'220.0304'
p3279
(dp3280
g3231
F0.035000000000000003
sg3232
F0.032920317603436194
sg3233
g11
(g13
S'\x00~\xf2\xb0Pk\x9a?'
tRp3281
sg3235
F-9.3416999999999994
sg3236
F0.39052677981700828
sg3237
g11
(g13
S'\xcc\x10\xc7\xba\xb8\xcd*@'
tRp3282
sg3239
F220.03039999999999
sg3240
F0.0082000000000000007
sg3241
F-0.14829800000000001
sg3242
F13.375999999999999
ssS'220.057719'
p3283
(dp3284
g3231
F0.045999999999999999
sg3232
F0.039775652239920724
sg3233
g11
(g13
S'\x00\xc0\xec\x9e<,\x94?'
tRp3285
sg3235
F-8.4358000000000004
sg3236
F0.79200748429799384
sg3237
g11
(g13
S'Z\xf5\xb9\xda\x8a\x9d,@'
tRp3286
sg3239
F220.05771899999999
sg3240
F0.0124
sg3241
F-0.17868500000000001
sg3242
F14.288
sssS'faintest_s2n'
p3287
F5.6698601473871708
sS'HJD_mid'
p3288
g11
(g13
S'\\0M\xf0\x03\xbaBA'
tRp3289
sS'2mass_abs_avg_dev'
p3290
S'0.054625'
p3291
sS'targ_s2n'
p3292
F46.020935251468927
sS'sex_faintest'
p3293
(g11
(g13
S'\x9a\x08\x1b\x9e^Y1@'
tRp3294
g11
(g13
S'"\xf1\'\x1f\x1f\x98\xc8?'
tRp3295
tp3296
sS'N_dither'
p3297
I6
sS'HJD_start'
p3298
g11
(g13
S'\xbf\xb3A\xf0\x03\xbaBA'
tRp3299
sS'STOP_CPU'
p3300
S'2008-03-10 09:12:02.379931'
p3301
sS'STRT_CPU'
p3302
S'2008-03-10 09:11:01.804047'
p3303
sS't_mid'
p3304
(F2013.5000000000002
F30.499999999999996
tp3305
sS'FileName'
p3306
g3225
sS'filter'
p3307
S'h'
sS'targ_mag'
p3308
(g11
(g13
S'\x86Z\xd3\xbc\xe3\x14.@'
tRp3309
F0.06248627458179204
tp3310
sS'Aperture'
p3311
I6
sS'HJD_stop'
p3312
g11
(g13
S'\xfa\xacX\xf0\x03\xbaBA'
tRp3313
sS'targ_flux'
p3314
(F1205.2570000000001
F26.189319999999999
tp3315
sS'zp'
p3316
(g11
(g13
S'u\x93\x18\x04V\xbe6@'
tRp3317
g11
(g13
S'\xab\\\x98\xcbH\x13\x90?'
tRp3318
tp3319
sS'EXPTIME'
p3320
S'46.8'
p3321
ssS'k_long_GRB.108590.1_coadd_5-6.fits'
p3322
(dp3323
S'calib_stars'
p3324
(dp3325
S'220.049441'
p3326
(dp3327
S'2mass_e_mag'
p3328
F0.089999999999999997
sS'new_e_mag'
p3329
F0.10998287593984803
sS'delta_mag'
p3330
g11
(g13
S'\x00jM\xf3\x8eS\xcc?'
tRp3331
sS'inst_mag'
p3332
F-7.5430000000000001
sS'delta_pos'
p3333
F2.2339953406562998
sS'new_mag'
p3334
g11
(g13
S'\xa2\xb47\xf8\xc2D-@'
tRp3335
sS'ra'
p3336
F220.049441
sS'inst_e_mag'
p3337
F0.043700000000000003
sS'dec'
p3338
F-0.114549
sS'2mass_mag'
p3339
F14.413
ssS'220.041783'
p3340
(dp3341
g3328
F0.027
sg3329
F0.03490415734550828
sg3330
g11
(g13
S'\x00\xb8\xc8v\xbe\x9fz?'
tRp3342
sg3332
F-10.1168
sg3333
F1.9855359917294453
sg3334
g11
(g13
S'\xe5\xd0"\xdb\xf9\x1e(@'
tRp3343
sg3336
F220.04178300000001
sg3337
F0.0045999999999999999
sg3338
F-0.200956
sg3339
F12.067
ssS'220.048875'
p3344
(dp3345
g3328
F0.104
sg3329
F0.086286273531773289
sg3330
g11
(g13
S'\xc0\xeas\xb5\x15\xfb\xd3?'
tRp3346
sg3332
F-7.8464999999999998
sg3333
F1.3256668746243985
sg3334
g11
(g13
S'\x9a\x08\x1b\x9e^\xa9,@'
tRp3347
sg3336
F220.04887500000001
sg3337
F0.0332
sg3338
F-0.118968
sg3339
F14.643000000000001
ssS'220.12869'
p3348
(dp3349
g3328
F0.087999999999999995
sg3329
F0.09973697910003089
sg3330
g11
(g13
S'\x00\xe0O\x8d\x97n\x82?'
tRp3350
sg3332
F-7.6593
sg3333
F1.4575049560755637
sg3334
g11
(g13
S'\xef\xa7\xc6K7\t-@'
tRp3351
sg3336
F220.12869000000001
sg3337
F0.039199999999999999
sg3338
F-0.110815
sg3339
F14.526999999999999
ssS'220.108846'
p3352
(dp3353
g3328
F0.029000000000000001
sg3329
F0.038037573529340687
sg3330
g11
(g13
S'\x00\xf0\x16HP\xfcx?'
tRp3354
sg3332
F-9.5001999999999995
sg3333
F0.3460889608080997
sg3334
g11
(g13
S'B>\xe8\xd9\xacZ)@'
tRp3355
sg3336
F220.108846
sg3337
F0.0077999999999999996
sg3338
F-0.143456
sg3339
F12.670999999999999
ssS'220.068892'
p3356
(dp3357
g3328
F0.021000000000000001
sg3329
F0.033651427904325244
sg3330
g11
(g13
S'\x00\xbb\x96\x90\x0fz\xa6?'
tRp3358
sg3332
F-10.9064
sg3333
F1.2505639450655555
sg3334
g11
(g13
S'\t\xf9\xa0g\xb3\x8a&@'
tRp3359
sg3336
F220.06889200000001
sg3337
F0.0025000000000000001
sg3338
F-0.13592099999999999
sg3339
F11.227
ssS'220.142816'
p3360
(dp3361
g3328
F0.021000000000000001
sg3329
F0.033530538319567725
sg3330
g11
(g13
S'\x004\xcd;N\xd1\x81?'
tRp3362
sg3332
F-11.101599999999999
sg3333
F0.34398072949168235
sg3334
g11
(g13
S'I\x9d\x80&\xc2&&@'
tRp3363
sg3336
F220.14281600000001
sg3337
F0.0022000000000000001
sg3338
F-0.139483
sg3339
F11.067
ssS'220.04723'
p3364
(dp3365
g3328
F0.024
sg3329
F0.033199075288326926
sg3330
g11
(g13
S'\x00\xf8\x16HP\xfcx?'
tRp3366
sg3332
F-12.369400000000001
sg3333
F1.550120235065978
sg3334
g11
(g13
S'u\xe0\x9c\x11\xa5\x9d#@'
tRp3367
sg3336
F220.04723000000001
sg3337
F0.001
sg3338
F-0.177985
sg3339
F9.8140000000000001
ssS'220.150068'
p3368
(dp3369
g3328
F0.023
sg3329
F0.033237223109038455
sg3330
g11
(g13
S'\x803\x116<\xbd\xb2?'
tRp3370
sg3332
F-11.9961
sg3333
F1.535928643005307
sg3334
g11
(g13
S'\x05\x12\x14?\xc6\\$@'
tRp3371
sg3336
F220.150068
sg3337
F0.0011999999999999999
sg3338
F-0.17136299999999999
sg3339
F10.108000000000001
ssS'220.038025'
p3372
(dp3373
g3328
F0.10199999999999999
sg3329
F0.094323067168111105
sg3330
g11
(g13
S'\x80\xeeZB>\xe8\xc9?'
tRp3374
sg3332
F-7.7317
sg3333
F2.1298215133298788
sg3334
g11
(g13
S'\xf81\xe6\xae%\xe4,@'
tRp3375
sg3336
F220.038025
sg3337
F0.036799999999999999
sg3338
F-0.207151
sg3339
F14.648
ssS'220.057719'
p3376
(dp3377
g3328
F0.072999999999999995
sg3329
F0.073840494310371457
sg3330
g11
(g13
S'\x00*e\x19\xe2X\x97?'
tRp3378
sg3332
F-8.0564999999999998
sg3333
F1.6600404529878827
sg3334
g11
(g13
S'\xae\xb6b\x7f\xd9=,@'
tRp3379
sg3336
F220.05771899999999
sg3337
F0.0275
sg3338
F-0.17868500000000001
sg3339
F14.098000000000001
ssS'220.0304'
p3380
(dp3381
g3328
F0.037999999999999999
sg3329
F0.049802194730754583
sg3330
g11
(g13
S'\x80\xcc]K\xc8\x07\xbd?'
tRp3382
sg3332
F-8.9606999999999992
sg3333
F2.152069347323101
sg3334
g11
(g13
S'\x90\xa0\xf81\xe6n*@'
tRp3383
sg3336
F220.03039999999999
sg3337
F0.0155
sg3338
F-0.14829800000000001
sg3339
F13.33
sssS'faintest_s2n'
p3384
F12.314935068060842
sS'HJD_mid'
p3385
g11
(g13
S'\xa2\xd6\xfa\xef\x03\xbaBA'
tRp3386
sS'STOP_CPU'
p3387
S'2008-03-10 09:08:25.329263'
p3388
sS'targ_s2n'
p3389
F37.535168838845721
sS'sex_faintest'
p3390
(g11
(g13
S"\xf2A\xcff\xd5'/@"
tRp3391
g11
(g13
S'\xe0Rf\xc0\xd5\x19\xbe?'
tRp3392
tp3393
sS'N_dither'
p3394
I6
sS'HJD_start'
p3395
g11
(g13
S'pQ\xef\xef\x03\xbaBA'
tRp3396
sS'2mass_abs_avg_dev'
p3397
S'0.0854666666667'
p3398
sS'STRT_CPU'
p3399
S'2008-03-10 09:07:24.576557'
p3400
sS't_mid'
p3401
(F1796.5
F30.499999999999996
tp3402
sS'FileName'
p3403
g3322
sS'filter'
p3404
S'k'
sS'targ_mag'
p3405
(g11
(g13
S'^)\xcb\x10\xc7Z,@'
tRp3406
F0.076858494650884221
tp3407
sS'Aperture'
p3408
I6
sS'HJD_stop'
p3409
g11
(g13
S'\xd5[\x06\xf0\x03\xbaBA'
tRp3410
sS'targ_flux'
p3411
(F1584.9179999999999
F42.224879999999999
tp3412
sS'zp'
p3413
(g11
(g13
S'\xaf\x94e\x88c-6@'
tRp3414
g11
(g13
S'\xa5\xa2J\xff\xf2\x08\x9a?'
tRp3415
tp3416
sS'EXPTIME'
p3417
S'46.8'
p3418
ss.